Archive member included because of file (symbol)

/home/sun/t1/MT92_S1_T1_estar_WCDMA_JB9_Ldata_20140711/mediatek/platform/mt6592/preloader/src/SecLib.a(seclib_boot.o)
                              /home/sun/t1/MT92_S1_T1_estar_WCDMA_JB9_Ldata_20140711/mediatek/preloader/out/sec_boot.o (seclib_sec_boot_enabled)
/home/sun/t1/MT92_S1_T1_estar_WCDMA_JB9_Ldata_20140711/mediatek/platform/mt6592/preloader/src/SecLib.a(seclib_dl.o)
                              /home/sun/t1/MT92_S1_T1_estar_WCDMA_JB9_Ldata_20140711/mediatek/preloader/out/download.o (seclib_sec_usbdl_enabled)
/home/sun/t1/MT92_S1_T1_estar_WCDMA_JB9_Ldata_20140711/mediatek/platform/mt6592/preloader/src/SecLib.a(seclib_img_hash.o)
                              /home/sun/t1/MT92_S1_T1_estar_WCDMA_JB9_Ldata_20140711/mediatek/preloader/out/sec_auth.o (seclib_image_hash_compute)
/home/sun/t1/MT92_S1_T1_estar_WCDMA_JB9_Ldata_20140711/mediatek/platform/mt6592/preloader/src/SecLib.a(seclib_img_verify.o)
                              /home/sun/t1/MT92_S1_T1_estar_WCDMA_JB9_Ldata_20140711/mediatek/platform/mt6592/preloader/src/SecLib.a(seclib_boot.o) (seclib_image_verify)
/home/sun/t1/MT92_S1_T1_estar_WCDMA_JB9_Ldata_20140711/mediatek/platform/mt6592/preloader/src/SecLib.a(seclib_key.o)
                              /home/sun/t1/MT92_S1_T1_estar_WCDMA_JB9_Ldata_20140711/mediatek/preloader/out/sec_key.o (seclib_read_sbc_key)
/home/sun/t1/MT92_S1_T1_estar_WCDMA_JB9_Ldata_20140711/mediatek/platform/mt6592/preloader/src/SecLib.a(seclib.o)
                              /home/sun/t1/MT92_S1_T1_estar_WCDMA_JB9_Ldata_20140711/mediatek/platform/mt6592/preloader/src/SecLib.a(seclib_boot.o) (g_cust)
/home/sun/t1/MT92_S1_T1_estar_WCDMA_JB9_Ldata_20140711/mediatek/platform/mt6592/preloader/src/SecLib.a(seclib_secroimg.o)
                              /home/sun/t1/MT92_S1_T1_estar_WCDMA_JB9_Ldata_20140711/mediatek/preloader/out/sec_secroimg.o (seclib_secroimg_read)
/home/sun/t1/MT92_S1_T1_estar_WCDMA_JB9_Ldata_20140711/mediatek/platform/mt6592/preloader/src/SecLib.a(seclib_sej_export.o)
                              /home/sun/t1/MT92_S1_T1_estar_WCDMA_JB9_Ldata_20140711/mediatek/platform/mt6592/preloader/src/SecLib.a(seclib.o) (sp_read_swotp)
/home/sun/t1/MT92_S1_T1_estar_WCDMA_JB9_Ldata_20140711/mediatek/platform/mt6592/preloader/src/SecLib.a(seclib_util.o)
                              /home/sun/t1/MT92_S1_T1_estar_WCDMA_JB9_Ldata_20140711/mediatek/platform/mt6592/preloader/src/SecLib.a(seclib_img_verify.o) (seclib_image_hash_dump)
/home/sun/t1/MT92_S1_T1_estar_WCDMA_JB9_Ldata_20140711/mediatek/platform/mt6592/preloader/src/SecLib.a(weak_auth.o)
                              /home/sun/t1/MT92_S1_T1_estar_WCDMA_JB9_Ldata_20140711/mediatek/preloader/out/sec_auth.o (seclib_rsa_init)
/home/sun/t1/MT92_S1_T1_estar_WCDMA_JB9_Ldata_20140711/mediatek/platform/mt6592/preloader/src/SecLib.a(seccfg_crypto.o)
                              /home/sun/t1/MT92_S1_T1_estar_WCDMA_JB9_Ldata_20140711/mediatek/platform/mt6592/preloader/src/SecLib.a(seclib_boot.o) (get_seccfg_cipher_len)
/home/sun/t1/MT92_S1_T1_estar_WCDMA_JB9_Ldata_20140711/mediatek/platform/mt6592/preloader/src/security/auth/DaVerifyLib.a(auth.o)
                              /home/sun/t1/MT92_S1_T1_estar_WCDMA_JB9_Ldata_20140711/mediatek/preloader/out/sec_auth.o (seclib_mtk_rsa_n_key_len)
/home/sun/t1/MT92_S1_T1_estar_WCDMA_JB9_Ldata_20140711/mediatek/platform/mt6592/preloader/src/security/auth/DaVerifyLib.a(bgn_io.o)
                              /home/sun/t1/MT92_S1_T1_estar_WCDMA_JB9_Ldata_20140711/mediatek/platform/mt6592/preloader/src/security/auth/DaVerifyLib.a(auth.o) (bgn_read_str)
/home/sun/t1/MT92_S1_T1_estar_WCDMA_JB9_Ldata_20140711/mediatek/platform/mt6592/preloader/src/security/auth/DaVerifyLib.a(bgn_util.o)
                              /home/sun/t1/MT92_S1_T1_estar_WCDMA_JB9_Ldata_20140711/mediatek/platform/mt6592/preloader/src/security/auth/DaVerifyLib.a(bgn_io.o) (bgn_grow)
/home/sun/t1/MT92_S1_T1_estar_WCDMA_JB9_Ldata_20140711/mediatek/platform/mt6592/preloader/src/security/auth/DaVerifyLib.a(rsa.o)
                              /home/sun/t1/MT92_S1_T1_estar_WCDMA_JB9_Ldata_20140711/mediatek/platform/mt6592/preloader/src/security/auth/DaVerifyLib.a(auth.o) (rsa_verify)
/home/sun/t1/MT92_S1_T1_estar_WCDMA_JB9_Ldata_20140711/mediatek/platform/mt6592/preloader/src/security/auth/DaVerifyLib.a(sha1.o)
                              /home/sun/t1/MT92_S1_T1_estar_WCDMA_JB9_Ldata_20140711/mediatek/platform/mt6592/preloader/src/SecLib.a(seclib_img_hash.o) (sha1)
/home/sun/t1/MT92_S1_T1_estar_WCDMA_JB9_Ldata_20140711/mediatek/platform/mt6592/preloader/src/security/auth/DaVerifyLib.a(stdlib.o)
                              /home/sun/t1/MT92_S1_T1_estar_WCDMA_JB9_Ldata_20140711/mediatek/platform/mt6592/preloader/src/security/auth/DaVerifyLib.a(bgn_util.o) (malloc)
/home/sun/t1/MT92_S1_T1_estar_WCDMA_JB9_Ldata_20140711/mediatek/platform/mt6592/preloader/src/security/auth/DaVerifyLib.a(bgn_core.o)
                              /home/sun/t1/MT92_S1_T1_estar_WCDMA_JB9_Ldata_20140711/mediatek/platform/mt6592/preloader/src/security/auth/DaVerifyLib.a(bgn_io.o) (bgn_init)
/home/sun/t1/MT92_S1_T1_estar_WCDMA_JB9_Ldata_20140711/mediatek/platform/mt6592/preloader/src/security/auth/DaVerifyLib.a(montg.o)
                              /home/sun/t1/MT92_S1_T1_estar_WCDMA_JB9_Ldata_20140711/mediatek/platform/mt6592/preloader/src/security/auth/DaVerifyLib.a(bgn_core.o) (montg_init)
/home/sun/t1/MT92_S1_T1_estar_WCDMA_JB9_Ldata_20140711/mediatek/platform/mt6592/preloader/src/SecPlat.a(efuse.o)
                              /home/sun/t1/MT92_S1_T1_estar_WCDMA_JB9_Ldata_20140711/mediatek/preloader/out/download.o (seclib_sbc_enabled)
/home/sun/t1/MT92_S1_T1_estar_WCDMA_JB9_Ldata_20140711/mediatek/platform/mt6592/preloader/src/SecPlat.a(meta.o)
                              /home/sun/t1/MT92_S1_T1_estar_WCDMA_JB9_Ldata_20140711/mediatek/preloader/out/main.o (seclib_brom_meta_mode)
/home/sun/t1/MT92_S1_T1_estar_WCDMA_JB9_Ldata_20140711/mediatek/platform/mt6592/preloader/src/SecPlat.a(seclib_region.o)
                              /home/sun/t1/MT92_S1_T1_estar_WCDMA_JB9_Ldata_20140711/mediatek/preloader/out/sec_region.o (seclib_region_check)
/home/sun/t1/MT92_S1_T1_estar_WCDMA_JB9_Ldata_20140711/mediatek/platform/mt6592/preloader/src/SecPlat.a(sej_hk.o)
                              /home/sun/t1/MT92_S1_T1_estar_WCDMA_JB9_Ldata_20140711/mediatek/platform/mt6592/preloader/src/SecLib.a(seclib_sej_export.o) (SEJ_V3_Init)
/home/sun/t1/MT92_S1_T1_estar_WCDMA_JB9_Ldata_20140711/mediatek/platform/mt6592/preloader/src/SecPlat.a(sej_sk.o)
                              /home/sun/t1/MT92_S1_T1_estar_WCDMA_JB9_Ldata_20140711/mediatek/platform/mt6592/preloader/src/SecLib.a(seclib_sej_export.o) (sej_set_key)

Discarded input sections

 .text          0x00000000        0x0 /home/sun/t1/MT92_S1_T1_estar_WCDMA_JB9_Ldata_20140711/mediatek/preloader/out/addr_trans.o
 .data          0x00000000        0x0 /home/sun/t1/MT92_S1_T1_estar_WCDMA_JB9_Ldata_20140711/mediatek/preloader/out/addr_trans.o
 .bss           0x00000000        0x0 /home/sun/t1/MT92_S1_T1_estar_WCDMA_JB9_Ldata_20140711/mediatek/preloader/out/addr_trans.o
 .text.virt_to_phys_addr
                0x00000000       0xb4 /home/sun/t1/MT92_S1_T1_estar_WCDMA_JB9_Ldata_20140711/mediatek/preloader/out/addr_trans.o
 .text.phys_to_virt_addr
                0x00000000       0x7a /home/sun/t1/MT92_S1_T1_estar_WCDMA_JB9_Ldata_20140711/mediatek/preloader/out/addr_trans.o
 .note.GNU-stack
                0x00000000        0x0 /home/sun/t1/MT92_S1_T1_estar_WCDMA_JB9_Ldata_20140711/mediatek/preloader/out/addr_trans.o
 .text          0x00000000        0x0 /home/sun/t1/MT92_S1_T1_estar_WCDMA_JB9_Ldata_20140711/mediatek/preloader/out/blkdev.o
 .data          0x00000000        0x0 /home/sun/t1/MT92_S1_T1_estar_WCDMA_JB9_Ldata_20140711/mediatek/preloader/out/blkdev.o
 .bss           0x00000000        0x0 /home/sun/t1/MT92_S1_T1_estar_WCDMA_JB9_Ldata_20140711/mediatek/preloader/out/blkdev.o
 .text.blkdev_bread
                0x00000000        0xc /home/sun/t1/MT92_S1_T1_estar_WCDMA_JB9_Ldata_20140711/mediatek/preloader/out/blkdev.o
 .text.blkdev_bwrite
                0x00000000        0xc /home/sun/t1/MT92_S1_T1_estar_WCDMA_JB9_Ldata_20140711/mediatek/preloader/out/blkdev.o
 .note.GNU-stack
                0x00000000        0x0 /home/sun/t1/MT92_S1_T1_estar_WCDMA_JB9_Ldata_20140711/mediatek/preloader/out/blkdev.o
 .text          0x00000000        0x0 /home/sun/t1/MT92_S1_T1_estar_WCDMA_JB9_Ldata_20140711/mediatek/preloader/out/circbuf.o
 .data          0x00000000        0x0 /home/sun/t1/MT92_S1_T1_estar_WCDMA_JB9_Ldata_20140711/mediatek/preloader/out/circbuf.o
 .bss           0x00000000        0x0 /home/sun/t1/MT92_S1_T1_estar_WCDMA_JB9_Ldata_20140711/mediatek/preloader/out/circbuf.o
 .note.GNU-stack
                0x00000000        0x0 /home/sun/t1/MT92_S1_T1_estar_WCDMA_JB9_Ldata_20140711/mediatek/preloader/out/circbuf.o
 .text          0x00000000        0x0 /home/sun/t1/MT92_S1_T1_estar_WCDMA_JB9_Ldata_20140711/mediatek/preloader/out/cust_msdc.o
 .data          0x00000000        0x0 /home/sun/t1/MT92_S1_T1_estar_WCDMA_JB9_Ldata_20140711/mediatek/preloader/out/cust_msdc.o
 .bss           0x00000000        0x0 /home/sun/t1/MT92_S1_T1_estar_WCDMA_JB9_Ldata_20140711/mediatek/preloader/out/cust_msdc.o
 .note.GNU-stack
                0x00000000        0x0 /home/sun/t1/MT92_S1_T1_estar_WCDMA_JB9_Ldata_20140711/mediatek/preloader/out/cust_msdc.o
 .text          0x00000000        0x0 /home/sun/t1/MT92_S1_T1_estar_WCDMA_JB9_Ldata_20140711/mediatek/preloader/out/custom_emi.o
 .data          0x00000000        0x0 /home/sun/t1/MT92_S1_T1_estar_WCDMA_JB9_Ldata_20140711/mediatek/preloader/out/custom_emi.o
 .bss           0x00000000        0x0 /home/sun/t1/MT92_S1_T1_estar_WCDMA_JB9_Ldata_20140711/mediatek/preloader/out/custom_emi.o
 .note.GNU-stack
                0x00000000        0x0 /home/sun/t1/MT92_S1_T1_estar_WCDMA_JB9_Ldata_20140711/mediatek/preloader/out/custom_emi.o
 .text          0x00000000        0x0 /home/sun/t1/MT92_S1_T1_estar_WCDMA_JB9_Ldata_20140711/mediatek/preloader/out/cust_part.o
 .data          0x00000000        0x0 /home/sun/t1/MT92_S1_T1_estar_WCDMA_JB9_Ldata_20140711/mediatek/preloader/out/cust_part.o
 .bss           0x00000000        0x0 /home/sun/t1/MT92_S1_T1_estar_WCDMA_JB9_Ldata_20140711/mediatek/preloader/out/cust_part.o
 .note.GNU-stack
                0x00000000        0x0 /home/sun/t1/MT92_S1_T1_estar_WCDMA_JB9_Ldata_20140711/mediatek/preloader/out/cust_part.o
 .text          0x00000000        0x0 /home/sun/t1/MT92_S1_T1_estar_WCDMA_JB9_Ldata_20140711/mediatek/preloader/out/device_apc.o
 .data          0x00000000        0x0 /home/sun/t1/MT92_S1_T1_estar_WCDMA_JB9_Ldata_20140711/mediatek/preloader/out/device_apc.o
 .bss           0x00000000        0x0 /home/sun/t1/MT92_S1_T1_estar_WCDMA_JB9_Ldata_20140711/mediatek/preloader/out/device_apc.o
 .note.GNU-stack
                0x00000000        0x0 /home/sun/t1/MT92_S1_T1_estar_WCDMA_JB9_Ldata_20140711/mediatek/preloader/out/device_apc.o
 .text          0x00000000        0x0 /home/sun/t1/MT92_S1_T1_estar_WCDMA_JB9_Ldata_20140711/mediatek/preloader/out/div0.o
 .data          0x00000000        0x0 /home/sun/t1/MT92_S1_T1_estar_WCDMA_JB9_Ldata_20140711/mediatek/preloader/out/div0.o
 .bss           0x00000000        0x0 /home/sun/t1/MT92_S1_T1_estar_WCDMA_JB9_Ldata_20140711/mediatek/preloader/out/div0.o
 .note.GNU-stack
                0x00000000        0x0 /home/sun/t1/MT92_S1_T1_estar_WCDMA_JB9_Ldata_20140711/mediatek/preloader/out/div0.o
 .text          0x00000000        0x0 /home/sun/t1/MT92_S1_T1_estar_WCDMA_JB9_Ldata_20140711/mediatek/preloader/out/download.o
 .data          0x00000000        0x0 /home/sun/t1/MT92_S1_T1_estar_WCDMA_JB9_Ldata_20140711/mediatek/preloader/out/download.o
 .bss           0x00000000        0x0 /home/sun/t1/MT92_S1_T1_estar_WCDMA_JB9_Ldata_20140711/mediatek/preloader/out/download.o
 .note.GNU-stack
                0x00000000        0x0 /home/sun/t1/MT92_S1_T1_estar_WCDMA_JB9_Ldata_20140711/mediatek/preloader/out/download.o
 .text          0x00000000        0x0 /home/sun/t1/MT92_S1_T1_estar_WCDMA_JB9_Ldata_20140711/mediatek/preloader/out/dram_buffer.o
 .data          0x00000000        0x0 /home/sun/t1/MT92_S1_T1_estar_WCDMA_JB9_Ldata_20140711/mediatek/preloader/out/dram_buffer.o
 .bss           0x00000000        0x0 /home/sun/t1/MT92_S1_T1_estar_WCDMA_JB9_Ldata_20140711/mediatek/preloader/out/dram_buffer.o
 .note.GNU-stack
                0x00000000        0x0 /home/sun/t1/MT92_S1_T1_estar_WCDMA_JB9_Ldata_20140711/mediatek/preloader/out/dram_buffer.o
 .text          0x00000000        0x0 /home/sun/t1/MT92_S1_T1_estar_WCDMA_JB9_Ldata_20140711/mediatek/preloader/out/dramc_calib.o
 .data          0x00000000        0x0 /home/sun/t1/MT92_S1_T1_estar_WCDMA_JB9_Ldata_20140711/mediatek/preloader/out/dramc_calib.o
 .bss           0x00000000        0x0 /home/sun/t1/MT92_S1_T1_estar_WCDMA_JB9_Ldata_20140711/mediatek/preloader/out/dramc_calib.o
 .note.GNU-stack
                0x00000000        0x0 /home/sun/t1/MT92_S1_T1_estar_WCDMA_JB9_Ldata_20140711/mediatek/preloader/out/dramc_calib.o
 .text          0x00000000        0x0 /home/sun/t1/MT92_S1_T1_estar_WCDMA_JB9_Ldata_20140711/mediatek/preloader/out/dramc_dle_cal.o
 .bss           0x00000000        0x0 /home/sun/t1/MT92_S1_T1_estar_WCDMA_JB9_Ldata_20140711/mediatek/preloader/out/dramc_dle_cal.o
 .text.dramc_ta1
                0x00000000       0xd0 /home/sun/t1/MT92_S1_T1_estar_WCDMA_JB9_Ldata_20140711/mediatek/preloader/out/dramc_dle_cal.o
 .text.dram_driving_factor_handler
                0x00000000        0x4 /home/sun/t1/MT92_S1_T1_estar_WCDMA_JB9_Ldata_20140711/mediatek/preloader/out/dramc_dle_cal.o
 .text.dqso_dly_factor_handler
                0x00000000       0x84 /home/sun/t1/MT92_S1_T1_estar_WCDMA_JB9_Ldata_20140711/mediatek/preloader/out/dramc_dle_cal.o
 .text.ett_print_dram_driving
                0x00000000        0x2 /home/sun/t1/MT92_S1_T1_estar_WCDMA_JB9_Ldata_20140711/mediatek/preloader/out/dramc_dle_cal.o
 .data.rel.rx_tuning_factors
                0x00000000       0x14 /home/sun/t1/MT92_S1_T1_estar_WCDMA_JB9_Ldata_20140711/mediatek/preloader/out/dramc_dle_cal.o
 .data.rel.local.dram_driving_tbl
                0x00000000        0x8 /home/sun/t1/MT92_S1_T1_estar_WCDMA_JB9_Ldata_20140711/mediatek/preloader/out/dramc_dle_cal.o
 .data.rel.local.driving_tbl
                0x00000000       0x18 /home/sun/t1/MT92_S1_T1_estar_WCDMA_JB9_Ldata_20140711/mediatek/preloader/out/dramc_dle_cal.o
 .note.GNU-stack
                0x00000000        0x0 /home/sun/t1/MT92_S1_T1_estar_WCDMA_JB9_Ldata_20140711/mediatek/preloader/out/dramc_dle_cal.o
 .text          0x00000000        0x0 /home/sun/t1/MT92_S1_T1_estar_WCDMA_JB9_Ldata_20140711/mediatek/preloader/out/dramc_dqs_gw.o
 .bss           0x00000000        0x0 /home/sun/t1/MT92_S1_T1_estar_WCDMA_JB9_Ldata_20140711/mediatek/preloader/out/dramc_dqs_gw.o
 .text.dramc_ta2
                0x00000000      0x18c /home/sun/t1/MT92_S1_T1_estar_WCDMA_JB9_Ldata_20140711/mediatek/preloader/out/dramc_dqs_gw.o
 .text.ett_print_dqs_gw_after_finish_loop_n
                0x00000000       0x10 /home/sun/t1/MT92_S1_T1_estar_WCDMA_JB9_Ldata_20140711/mediatek/preloader/out/dramc_dqs_gw.o
 .data.rel.dqs_gw_test_cases_2
                0x00000000       0x10 /home/sun/t1/MT92_S1_T1_estar_WCDMA_JB9_Ldata_20140711/mediatek/preloader/out/dramc_dqs_gw.o
 .note.GNU-stack
                0x00000000        0x0 /home/sun/t1/MT92_S1_T1_estar_WCDMA_JB9_Ldata_20140711/mediatek/preloader/out/dramc_dqs_gw.o
 .data          0x00000000        0x0 /home/sun/t1/MT92_S1_T1_estar_WCDMA_JB9_Ldata_20140711/mediatek/preloader/out/eabi_idiv.o
 .bss           0x00000000        0x0 /home/sun/t1/MT92_S1_T1_estar_WCDMA_JB9_Ldata_20140711/mediatek/preloader/out/eabi_idiv.o
 .data          0x00000000        0x0 /home/sun/t1/MT92_S1_T1_estar_WCDMA_JB9_Ldata_20140711/mediatek/preloader/out/eabi.o
 .bss           0x00000000        0x0 /home/sun/t1/MT92_S1_T1_estar_WCDMA_JB9_Ldata_20140711/mediatek/preloader/out/eabi.o
 .data          0x00000000        0x0 /home/sun/t1/MT92_S1_T1_estar_WCDMA_JB9_Ldata_20140711/mediatek/preloader/out/eabi_uldivmod.o
 .bss           0x00000000        0x0 /home/sun/t1/MT92_S1_T1_estar_WCDMA_JB9_Ldata_20140711/mediatek/preloader/out/eabi_uldivmod.o
 .text          0x00000000        0x0 /home/sun/t1/MT92_S1_T1_estar_WCDMA_JB9_Ldata_20140711/mediatek/preloader/out/emi.o
 .data          0x00000000        0x0 /home/sun/t1/MT92_S1_T1_estar_WCDMA_JB9_Ldata_20140711/mediatek/preloader/out/emi.o
 .bss           0x00000000        0x0 /home/sun/t1/MT92_S1_T1_estar_WCDMA_JB9_Ldata_20140711/mediatek/preloader/out/emi.o
 .text.release_dram
                0x00000000        0x2 /home/sun/t1/MT92_S1_T1_estar_WCDMA_JB9_Ldata_20140711/mediatek/preloader/out/emi.o
 .data.emi_setting_default_lpddr3
                0x00000000       0xbc /home/sun/t1/MT92_S1_T1_estar_WCDMA_JB9_Ldata_20140711/mediatek/preloader/out/emi.o
 .note.GNU-stack
                0x00000000        0x0 /home/sun/t1/MT92_S1_T1_estar_WCDMA_JB9_Ldata_20140711/mediatek/preloader/out/emi.o
 .text          0x00000000        0x0 /home/sun/t1/MT92_S1_T1_estar_WCDMA_JB9_Ldata_20140711/mediatek/preloader/out/fan5405.o
 .data          0x00000000        0x0 /home/sun/t1/MT92_S1_T1_estar_WCDMA_JB9_Ldata_20140711/mediatek/preloader/out/fan5405.o
 .bss           0x00000000        0x0 /home/sun/t1/MT92_S1_T1_estar_WCDMA_JB9_Ldata_20140711/mediatek/preloader/out/fan5405.o
 .text.fan5405_write_byte
                0x00000000       0x4c /home/sun/t1/MT92_S1_T1_estar_WCDMA_JB9_Ldata_20140711/mediatek/preloader/out/fan5405.o
 .text.fan5405_read_byte
                0x00000000       0x44 /home/sun/t1/MT92_S1_T1_estar_WCDMA_JB9_Ldata_20140711/mediatek/preloader/out/fan5405.o
 .text.fan5405_read_interface
                0x00000000       0x64 /home/sun/t1/MT92_S1_T1_estar_WCDMA_JB9_Ldata_20140711/mediatek/preloader/out/fan5405.o
 .text.fan5405_config_interface
                0x00000000       0x74 /home/sun/t1/MT92_S1_T1_estar_WCDMA_JB9_Ldata_20140711/mediatek/preloader/out/fan5405.o
 .text.fan5405_set_tmr_rst
                0x00000000       0x34 /home/sun/t1/MT92_S1_T1_estar_WCDMA_JB9_Ldata_20140711/mediatek/preloader/out/fan5405.o
 .text.fan5405_get_otg_status
                0x00000000       0x38 /home/sun/t1/MT92_S1_T1_estar_WCDMA_JB9_Ldata_20140711/mediatek/preloader/out/fan5405.o
 .text.fan5405_set_en_stat
                0x00000000       0x34 /home/sun/t1/MT92_S1_T1_estar_WCDMA_JB9_Ldata_20140711/mediatek/preloader/out/fan5405.o
 .text.fan5405_get_chip_status
                0x00000000       0x38 /home/sun/t1/MT92_S1_T1_estar_WCDMA_JB9_Ldata_20140711/mediatek/preloader/out/fan5405.o
 .text.fan5405_get_boost_status
                0x00000000       0x38 /home/sun/t1/MT92_S1_T1_estar_WCDMA_JB9_Ldata_20140711/mediatek/preloader/out/fan5405.o
 .text.fan5405_get_fault_status
                0x00000000       0x38 /home/sun/t1/MT92_S1_T1_estar_WCDMA_JB9_Ldata_20140711/mediatek/preloader/out/fan5405.o
 .text.fan5405_set_input_charging_current
                0x00000000       0x34 /home/sun/t1/MT92_S1_T1_estar_WCDMA_JB9_Ldata_20140711/mediatek/preloader/out/fan5405.o
 .text.fan5405_set_v_low
                0x00000000       0x34 /home/sun/t1/MT92_S1_T1_estar_WCDMA_JB9_Ldata_20140711/mediatek/preloader/out/fan5405.o
 .text.fan5405_set_te
                0x00000000       0x34 /home/sun/t1/MT92_S1_T1_estar_WCDMA_JB9_Ldata_20140711/mediatek/preloader/out/fan5405.o
 .text.fan5405_set_ce
                0x00000000       0x34 /home/sun/t1/MT92_S1_T1_estar_WCDMA_JB9_Ldata_20140711/mediatek/preloader/out/fan5405.o
 .text.fan5405_set_hz_mode
                0x00000000       0x34 /home/sun/t1/MT92_S1_T1_estar_WCDMA_JB9_Ldata_20140711/mediatek/preloader/out/fan5405.o
 .text.fan5405_set_opa_mode
                0x00000000       0x34 /home/sun/t1/MT92_S1_T1_estar_WCDMA_JB9_Ldata_20140711/mediatek/preloader/out/fan5405.o
 .text.fan5405_set_oreg
                0x00000000       0x34 /home/sun/t1/MT92_S1_T1_estar_WCDMA_JB9_Ldata_20140711/mediatek/preloader/out/fan5405.o
 .text.fan5405_set_otg_pl
                0x00000000       0x34 /home/sun/t1/MT92_S1_T1_estar_WCDMA_JB9_Ldata_20140711/mediatek/preloader/out/fan5405.o
 .text.fan5405_set_otg_en
                0x00000000       0x34 /home/sun/t1/MT92_S1_T1_estar_WCDMA_JB9_Ldata_20140711/mediatek/preloader/out/fan5405.o
 .text.fan5405_get_vender_code
                0x00000000       0x38 /home/sun/t1/MT92_S1_T1_estar_WCDMA_JB9_Ldata_20140711/mediatek/preloader/out/fan5405.o
 .text.fan5405_get_pn
                0x00000000       0x38 /home/sun/t1/MT92_S1_T1_estar_WCDMA_JB9_Ldata_20140711/mediatek/preloader/out/fan5405.o
 .text.fan5405_get_revision
                0x00000000       0x38 /home/sun/t1/MT92_S1_T1_estar_WCDMA_JB9_Ldata_20140711/mediatek/preloader/out/fan5405.o
 .text.fan5405_set_reset
                0x00000000       0x34 /home/sun/t1/MT92_S1_T1_estar_WCDMA_JB9_Ldata_20140711/mediatek/preloader/out/fan5405.o
 .text.fan5405_set_iocharge
                0x00000000       0x34 /home/sun/t1/MT92_S1_T1_estar_WCDMA_JB9_Ldata_20140711/mediatek/preloader/out/fan5405.o
 .text.fan5405_set_iterm
                0x00000000       0x34 /home/sun/t1/MT92_S1_T1_estar_WCDMA_JB9_Ldata_20140711/mediatek/preloader/out/fan5405.o
 .text.fan5405_set_dis_vreg
                0x00000000       0x34 /home/sun/t1/MT92_S1_T1_estar_WCDMA_JB9_Ldata_20140711/mediatek/preloader/out/fan5405.o
 .text.fan5405_set_io_level
                0x00000000       0x34 /home/sun/t1/MT92_S1_T1_estar_WCDMA_JB9_Ldata_20140711/mediatek/preloader/out/fan5405.o
 .text.fan5405_get_sp_status
                0x00000000       0x38 /home/sun/t1/MT92_S1_T1_estar_WCDMA_JB9_Ldata_20140711/mediatek/preloader/out/fan5405.o
 .text.fan5405_get_en_level
                0x00000000       0x38 /home/sun/t1/MT92_S1_T1_estar_WCDMA_JB9_Ldata_20140711/mediatek/preloader/out/fan5405.o
 .text.fan5405_set_vsp
                0x00000000       0x34 /home/sun/t1/MT92_S1_T1_estar_WCDMA_JB9_Ldata_20140711/mediatek/preloader/out/fan5405.o
 .text.fan5405_set_i_safe
                0x00000000       0x34 /home/sun/t1/MT92_S1_T1_estar_WCDMA_JB9_Ldata_20140711/mediatek/preloader/out/fan5405.o
 .text.fan5405_set_v_safe
                0x00000000       0x34 /home/sun/t1/MT92_S1_T1_estar_WCDMA_JB9_Ldata_20140711/mediatek/preloader/out/fan5405.o
 .text.fan5405_reg_config_interface
                0x00000000       0x2c /home/sun/t1/MT92_S1_T1_estar_WCDMA_JB9_Ldata_20140711/mediatek/preloader/out/fan5405.o
 .text.fan5405_dump_register
                0x00000000       0x30 /home/sun/t1/MT92_S1_T1_estar_WCDMA_JB9_Ldata_20140711/mediatek/preloader/out/fan5405.o
 .text.fan5405_read_register
                0x00000000       0x2c /home/sun/t1/MT92_S1_T1_estar_WCDMA_JB9_Ldata_20140711/mediatek/preloader/out/fan5405.o
 .text.fan5405_hw_init
                0x00000000       0x24 /home/sun/t1/MT92_S1_T1_estar_WCDMA_JB9_Ldata_20140711/mediatek/preloader/out/fan5405.o
 .bss.g_fan5405_log_en
                0x00000000        0x4 /home/sun/t1/MT92_S1_T1_estar_WCDMA_JB9_Ldata_20140711/mediatek/preloader/out/fan5405.o
 .rodata.__func__.1404
                0x00000000       0x13 /home/sun/t1/MT92_S1_T1_estar_WCDMA_JB9_Ldata_20140711/mediatek/preloader/out/fan5405.o
 .bss.fan5405_reg
                0x00000000        0x7 /home/sun/t1/MT92_S1_T1_estar_WCDMA_JB9_Ldata_20140711/mediatek/preloader/out/fan5405.o
 .rodata.str1.1
                0x00000000      0x141 /home/sun/t1/MT92_S1_T1_estar_WCDMA_JB9_Ldata_20140711/mediatek/preloader/out/fan5405.o
 .rodata.__func__.1411
                0x00000000       0x12 /home/sun/t1/MT92_S1_T1_estar_WCDMA_JB9_Ldata_20140711/mediatek/preloader/out/fan5405.o
 .bss.fan5405_i2c
                0x00000000       0x48 /home/sun/t1/MT92_S1_T1_estar_WCDMA_JB9_Ldata_20140711/mediatek/preloader/out/fan5405.o
 .note.GNU-stack
                0x00000000        0x0 /home/sun/t1/MT92_S1_T1_estar_WCDMA_JB9_Ldata_20140711/mediatek/preloader/out/fan5405.o
 .text          0x00000000        0x0 /home/sun/t1/MT92_S1_T1_estar_WCDMA_JB9_Ldata_20140711/mediatek/preloader/out/fpc_sw_repair2sw.o
 .data          0x00000000        0x0 /home/sun/t1/MT92_S1_T1_estar_WCDMA_JB9_Ldata_20140711/mediatek/preloader/out/fpc_sw_repair2sw.o
 .bss           0x00000000        0x0 /home/sun/t1/MT92_S1_T1_estar_WCDMA_JB9_Ldata_20140711/mediatek/preloader/out/fpc_sw_repair2sw.o
 .text.repair_sram
                0x00000000      0xc0c /home/sun/t1/MT92_S1_T1_estar_WCDMA_JB9_Ldata_20140711/mediatek/preloader/out/fpc_sw_repair2sw.o
 .rodata.str1.1
                0x00000000      0x412 /home/sun/t1/MT92_S1_T1_estar_WCDMA_JB9_Ldata_20140711/mediatek/preloader/out/fpc_sw_repair2sw.o
 .note.GNU-stack
                0x00000000        0x0 /home/sun/t1/MT92_S1_T1_estar_WCDMA_JB9_Ldata_20140711/mediatek/preloader/out/fpc_sw_repair2sw.o
 .text          0x00000000        0x0 /home/sun/t1/MT92_S1_T1_estar_WCDMA_JB9_Ldata_20140711/mediatek/preloader/out/gpio.o
 .data          0x00000000        0x0 /home/sun/t1/MT92_S1_T1_estar_WCDMA_JB9_Ldata_20140711/mediatek/preloader/out/gpio.o
 .bss           0x00000000        0x0 /home/sun/t1/MT92_S1_T1_estar_WCDMA_JB9_Ldata_20140711/mediatek/preloader/out/gpio.o
 .text.mt_get_gpio_dir_chip
                0x00000000       0x30 /home/sun/t1/MT92_S1_T1_estar_WCDMA_JB9_Ldata_20140711/mediatek/preloader/out/gpio.o
 .text.mt_get_gpio_pull_enable_chip
                0x00000000       0xbc /home/sun/t1/MT92_S1_T1_estar_WCDMA_JB9_Ldata_20140711/mediatek/preloader/out/gpio.o
 .text.mt_get_gpio_pull_select_chip
                0x00000000       0xc0 /home/sun/t1/MT92_S1_T1_estar_WCDMA_JB9_Ldata_20140711/mediatek/preloader/out/gpio.o
 .text.mt_set_gpio_out_chip
                0x00000000       0x58 /home/sun/t1/MT92_S1_T1_estar_WCDMA_JB9_Ldata_20140711/mediatek/preloader/out/gpio.o
 .text.mt_get_gpio_out_chip
                0x00000000       0x34 /home/sun/t1/MT92_S1_T1_estar_WCDMA_JB9_Ldata_20140711/mediatek/preloader/out/gpio.o
 .text.mt_get_gpio_in_chip
                0x00000000       0x34 /home/sun/t1/MT92_S1_T1_estar_WCDMA_JB9_Ldata_20140711/mediatek/preloader/out/gpio.o
 .text.mt_get_gpio_mode_chip
                0x00000000       0x38 /home/sun/t1/MT92_S1_T1_estar_WCDMA_JB9_Ldata_20140711/mediatek/preloader/out/gpio.o
 .text.mt_get_gpio_dir
                0x00000000       0x18 /home/sun/t1/MT92_S1_T1_estar_WCDMA_JB9_Ldata_20140711/mediatek/preloader/out/gpio.o
 .text.mt_get_gpio_pull_enable
                0x00000000       0x18 /home/sun/t1/MT92_S1_T1_estar_WCDMA_JB9_Ldata_20140711/mediatek/preloader/out/gpio.o
 .text.mt_get_gpio_pull_select
                0x00000000       0x18 /home/sun/t1/MT92_S1_T1_estar_WCDMA_JB9_Ldata_20140711/mediatek/preloader/out/gpio.o
 .text.mt_set_gpio_out
                0x00000000       0x1c /home/sun/t1/MT92_S1_T1_estar_WCDMA_JB9_Ldata_20140711/mediatek/preloader/out/gpio.o
 .text.mt_get_gpio_out
                0x00000000       0x18 /home/sun/t1/MT92_S1_T1_estar_WCDMA_JB9_Ldata_20140711/mediatek/preloader/out/gpio.o
 .text.mt_get_gpio_in
                0x00000000       0x18 /home/sun/t1/MT92_S1_T1_estar_WCDMA_JB9_Ldata_20140711/mediatek/preloader/out/gpio.o
 .text.mt_get_gpio_mode
                0x00000000       0x18 /home/sun/t1/MT92_S1_T1_estar_WCDMA_JB9_Ldata_20140711/mediatek/preloader/out/gpio.o
 .note.GNU-stack
                0x00000000        0x0 /home/sun/t1/MT92_S1_T1_estar_WCDMA_JB9_Ldata_20140711/mediatek/preloader/out/gpio.o
 .text          0x00000000        0x0 /home/sun/t1/MT92_S1_T1_estar_WCDMA_JB9_Ldata_20140711/mediatek/preloader/out/handshake_uart.o
 .bss           0x00000000        0x0 /home/sun/t1/MT92_S1_T1_estar_WCDMA_JB9_Ldata_20140711/mediatek/preloader/out/handshake_uart.o
 .note.GNU-stack
                0x00000000        0x0 /home/sun/t1/MT92_S1_T1_estar_WCDMA_JB9_Ldata_20140711/mediatek/preloader/out/handshake_uart.o
 .text          0x00000000        0x0 /home/sun/t1/MT92_S1_T1_estar_WCDMA_JB9_Ldata_20140711/mediatek/preloader/out/handshake_usb.o
 .bss           0x00000000        0x0 /home/sun/t1/MT92_S1_T1_estar_WCDMA_JB9_Ldata_20140711/mediatek/preloader/out/handshake_usb.o
 .note.GNU-stack
                0x00000000        0x0 /home/sun/t1/MT92_S1_T1_estar_WCDMA_JB9_Ldata_20140711/mediatek/preloader/out/handshake_usb.o
 .text          0x00000000        0x0 /home/sun/t1/MT92_S1_T1_estar_WCDMA_JB9_Ldata_20140711/mediatek/preloader/out/i2c.o
 .data          0x00000000        0x0 /home/sun/t1/MT92_S1_T1_estar_WCDMA_JB9_Ldata_20140711/mediatek/preloader/out/i2c.o
 .bss           0x00000000        0x0 /home/sun/t1/MT92_S1_T1_estar_WCDMA_JB9_Ldata_20140711/mediatek/preloader/out/i2c.o
 .text.i2c_read
                0x00000000       0x88 /home/sun/t1/MT92_S1_T1_estar_WCDMA_JB9_Ldata_20140711/mediatek/preloader/out/i2c.o
 .text.mt_i2c_test_eeprom
                0x00000000      0x164 /home/sun/t1/MT92_S1_T1_estar_WCDMA_JB9_Ldata_20140711/mediatek/preloader/out/i2c.o
 .text.mt_i2c_test
                0x00000000       0x30 /home/sun/t1/MT92_S1_T1_estar_WCDMA_JB9_Ldata_20140711/mediatek/preloader/out/i2c.o
 .rodata.__FUNCTION__.1818
                0x00000000        0xc /home/sun/t1/MT92_S1_T1_estar_WCDMA_JB9_Ldata_20140711/mediatek/preloader/out/i2c.o
 .rodata.__FUNCTION__.1732
                0x00000000        0x9 /home/sun/t1/MT92_S1_T1_estar_WCDMA_JB9_Ldata_20140711/mediatek/preloader/out/i2c.o
 .note.GNU-stack
                0x00000000        0x0 /home/sun/t1/MT92_S1_T1_estar_WCDMA_JB9_Ldata_20140711/mediatek/preloader/out/i2c.o
 .text          0x00000000        0x0 /home/sun/t1/MT92_S1_T1_estar_WCDMA_JB9_Ldata_20140711/mediatek/preloader/out/init.o
 .data          0x00000000        0x0 /home/sun/t1/MT92_S1_T1_estar_WCDMA_JB9_Ldata_20140711/mediatek/preloader/out/init.o
 .bss           0x00000000        0x0 /home/sun/t1/MT92_S1_T1_estar_WCDMA_JB9_Ldata_20140711/mediatek/preloader/out/init.o
 .text          0x00000000        0x0 /home/sun/t1/MT92_S1_T1_estar_WCDMA_JB9_Ldata_20140711/mediatek/preloader/out/keypad.o
 .data          0x00000000        0x0 /home/sun/t1/MT92_S1_T1_estar_WCDMA_JB9_Ldata_20140711/mediatek/preloader/out/keypad.o
 .bss           0x00000000        0x0 /home/sun/t1/MT92_S1_T1_estar_WCDMA_JB9_Ldata_20140711/mediatek/preloader/out/keypad.o
 .text.disable_PMIC_kpd_clock
                0x00000000        0x2 /home/sun/t1/MT92_S1_T1_estar_WCDMA_JB9_Ldata_20140711/mediatek/preloader/out/keypad.o
 .note.GNU-stack
                0x00000000        0x0 /home/sun/t1/MT92_S1_T1_estar_WCDMA_JB9_Ldata_20140711/mediatek/preloader/out/keypad.o
 .text          0x00000000        0x0 /home/sun/t1/MT92_S1_T1_estar_WCDMA_JB9_Ldata_20140711/mediatek/preloader/out/main.o
 .data          0x00000000        0x0 /home/sun/t1/MT92_S1_T1_estar_WCDMA_JB9_Ldata_20140711/mediatek/preloader/out/main.o
 .bss           0x00000000        0x0 /home/sun/t1/MT92_S1_T1_estar_WCDMA_JB9_Ldata_20140711/mediatek/preloader/out/main.o
 .note.GNU-stack
                0x00000000        0x0 /home/sun/t1/MT92_S1_T1_estar_WCDMA_JB9_Ldata_20140711/mediatek/preloader/out/main.o
 .text          0x00000000        0x0 /home/sun/t1/MT92_S1_T1_estar_WCDMA_JB9_Ldata_20140711/mediatek/preloader/out/memory.o
 .data          0x00000000        0x0 /home/sun/t1/MT92_S1_T1_estar_WCDMA_JB9_Ldata_20140711/mediatek/preloader/out/memory.o
 .bss           0x00000000        0x0 /home/sun/t1/MT92_S1_T1_estar_WCDMA_JB9_Ldata_20140711/mediatek/preloader/out/memory.o
 .note.GNU-stack
                0x00000000        0x0 /home/sun/t1/MT92_S1_T1_estar_WCDMA_JB9_Ldata_20140711/mediatek/preloader/out/memory.o
 .text          0x00000000       0xbc /home/sun/t1/MT92_S1_T1_estar_WCDMA_JB9_Ldata_20140711/mediatek/preloader/out/memory_test.o
 .data          0x00000000        0x0 /home/sun/t1/MT92_S1_T1_estar_WCDMA_JB9_Ldata_20140711/mediatek/preloader/out/memory_test.o
 .bss           0x00000000        0x0 /home/sun/t1/MT92_S1_T1_estar_WCDMA_JB9_Ldata_20140711/mediatek/preloader/out/memory_test.o
 .text          0x00000000        0x0 /home/sun/t1/MT92_S1_T1_estar_WCDMA_JB9_Ldata_20140711/mediatek/preloader/out/mmc_common_inter.o
 .data          0x00000000        0x0 /home/sun/t1/MT92_S1_T1_estar_WCDMA_JB9_Ldata_20140711/mediatek/preloader/out/mmc_common_inter.o
 .bss           0x00000000        0x0 /home/sun/t1/MT92_S1_T1_estar_WCDMA_JB9_Ldata_20140711/mediatek/preloader/out/mmc_common_inter.o
 .note.GNU-stack
                0x00000000        0x0 /home/sun/t1/MT92_S1_T1_estar_WCDMA_JB9_Ldata_20140711/mediatek/preloader/out/mmc_common_inter.o
 .text          0x00000000        0x0 /home/sun/t1/MT92_S1_T1_estar_WCDMA_JB9_Ldata_20140711/mediatek/preloader/out/mmc_core.o
 .data          0x00000000        0x0 /home/sun/t1/MT92_S1_T1_estar_WCDMA_JB9_Ldata_20140711/mediatek/preloader/out/mmc_core.o
 .bss           0x00000000        0x0 /home/sun/t1/MT92_S1_T1_estar_WCDMA_JB9_Ldata_20140711/mediatek/preloader/out/mmc_core.o
 .text.mmc_set_write_prot
                0x00000000       0x2e /home/sun/t1/MT92_S1_T1_estar_WCDMA_JB9_Ldata_20140711/mediatek/preloader/out/mmc_core.o
 .text.mmc_clr_write_prot
                0x00000000       0x2e /home/sun/t1/MT92_S1_T1_estar_WCDMA_JB9_Ldata_20140711/mediatek/preloader/out/mmc_core.o
 .text.mmc_send_write_prot
                0x00000000       0x5c /home/sun/t1/MT92_S1_T1_estar_WCDMA_JB9_Ldata_20140711/mediatek/preloader/out/mmc_core.o
 .text.mmc_send_write_prot_type
                0x00000000       0x5c /home/sun/t1/MT92_S1_T1_estar_WCDMA_JB9_Ldata_20140711/mediatek/preloader/out/mmc_core.o
 .text.mmc_erase_start
                0x00000000       0x54 /home/sun/t1/MT92_S1_T1_estar_WCDMA_JB9_Ldata_20140711/mediatek/preloader/out/mmc_core.o
 .text.mmc_erase_end
                0x00000000       0x54 /home/sun/t1/MT92_S1_T1_estar_WCDMA_JB9_Ldata_20140711/mediatek/preloader/out/mmc_core.o
 .text.mmc_erase
                0x00000000       0x84 /home/sun/t1/MT92_S1_T1_estar_WCDMA_JB9_Ldata_20140711/mediatek/preloader/out/mmc_core.o
 .text.mmc_get_wpg_size
                0x00000000       0x44 /home/sun/t1/MT92_S1_T1_estar_WCDMA_JB9_Ldata_20140711/mediatek/preloader/out/mmc_core.o
 .text.mmc_set_ext_csd
                0x00000000       0x4e /home/sun/t1/MT92_S1_T1_estar_WCDMA_JB9_Ldata_20140711/mediatek/preloader/out/mmc_core.o
 .text.mmc_set_erase_grp_def
                0x00000000       0x22 /home/sun/t1/MT92_S1_T1_estar_WCDMA_JB9_Ldata_20140711/mediatek/preloader/out/mmc_core.o
 .text.mmc_set_gp_size
                0x00000000       0x68 /home/sun/t1/MT92_S1_T1_estar_WCDMA_JB9_Ldata_20140711/mediatek/preloader/out/mmc_core.o
 .text.mmc_set_enh_size
                0x00000000       0x54 /home/sun/t1/MT92_S1_T1_estar_WCDMA_JB9_Ldata_20140711/mediatek/preloader/out/mmc_core.o
 .text.mmc_set_enh_start_addr
                0x00000000       0x46 /home/sun/t1/MT92_S1_T1_estar_WCDMA_JB9_Ldata_20140711/mediatek/preloader/out/mmc_core.o
 .text.mmc_set_boot_bus
                0x00000000       0x24 /home/sun/t1/MT92_S1_T1_estar_WCDMA_JB9_Ldata_20140711/mediatek/preloader/out/mmc_core.o
 .text.mmc_set_part_config
                0x00000000       0x1a /home/sun/t1/MT92_S1_T1_estar_WCDMA_JB9_Ldata_20140711/mediatek/preloader/out/mmc_core.o
 .text.mmc_set_part_attr
                0x00000000       0x32 /home/sun/t1/MT92_S1_T1_estar_WCDMA_JB9_Ldata_20140711/mediatek/preloader/out/mmc_core.o
 .text.mmc_set_part_compl
                0x00000000       0x1a /home/sun/t1/MT92_S1_T1_estar_WCDMA_JB9_Ldata_20140711/mediatek/preloader/out/mmc_core.o
 .rodata        0x00000000        0x4 /home/sun/t1/MT92_S1_T1_estar_WCDMA_JB9_Ldata_20140711/mediatek/preloader/out/mmc_core.o
 .note.GNU-stack
                0x00000000        0x0 /home/sun/t1/MT92_S1_T1_estar_WCDMA_JB9_Ldata_20140711/mediatek/preloader/out/mmc_core.o
 .text          0x00000000        0x0 /home/sun/t1/MT92_S1_T1_estar_WCDMA_JB9_Ldata_20140711/mediatek/preloader/out/mmc_test.o
 .data          0x00000000        0x0 /home/sun/t1/MT92_S1_T1_estar_WCDMA_JB9_Ldata_20140711/mediatek/preloader/out/mmc_test.o
 .bss           0x00000000        0x0 /home/sun/t1/MT92_S1_T1_estar_WCDMA_JB9_Ldata_20140711/mediatek/preloader/out/mmc_test.o
 .note.GNU-stack
                0x00000000        0x0 /home/sun/t1/MT92_S1_T1_estar_WCDMA_JB9_Ldata_20140711/mediatek/preloader/out/mmc_test.o
 .text          0x00000000        0x0 /home/sun/t1/MT92_S1_T1_estar_WCDMA_JB9_Ldata_20140711/mediatek/preloader/out/mrdump.o
 .data          0x00000000        0x0 /home/sun/t1/MT92_S1_T1_estar_WCDMA_JB9_Ldata_20140711/mediatek/preloader/out/mrdump.o
 .bss           0x00000000        0x0 /home/sun/t1/MT92_S1_T1_estar_WCDMA_JB9_Ldata_20140711/mediatek/preloader/out/mrdump.o
 .note.GNU-stack
                0x00000000        0x0 /home/sun/t1/MT92_S1_T1_estar_WCDMA_JB9_Ldata_20140711/mediatek/preloader/out/mrdump.o
 .text          0x00000000        0x0 /home/sun/t1/MT92_S1_T1_estar_WCDMA_JB9_Ldata_20140711/mediatek/preloader/out/msdc.o
 .data          0x00000000        0x0 /home/sun/t1/MT92_S1_T1_estar_WCDMA_JB9_Ldata_20140711/mediatek/preloader/out/msdc.o
 .bss           0x00000000        0x0 /home/sun/t1/MT92_S1_T1_estar_WCDMA_JB9_Ldata_20140711/mediatek/preloader/out/msdc.o
 .text.msdc_dump_card_status
                0x00000000        0x2 /home/sun/t1/MT92_S1_T1_estar_WCDMA_JB9_Ldata_20140711/mediatek/preloader/out/msdc.o
 .text.msdc_dump_ocr_reg
                0x00000000        0x2 /home/sun/t1/MT92_S1_T1_estar_WCDMA_JB9_Ldata_20140711/mediatek/preloader/out/msdc.o
 .text.msdc_dump_io_resp
                0x00000000        0x2 /home/sun/t1/MT92_S1_T1_estar_WCDMA_JB9_Ldata_20140711/mediatek/preloader/out/msdc.o
 .text.msdc_dump_rca_resp
                0x00000000        0x2 /home/sun/t1/MT92_S1_T1_estar_WCDMA_JB9_Ldata_20140711/mediatek/preloader/out/msdc.o
 .text.msdc_intr_mask
                0x00000000        0xc /home/sun/t1/MT92_S1_T1_estar_WCDMA_JB9_Ldata_20140711/mediatek/preloader/out/msdc.o
 .note.GNU-stack
                0x00000000        0x0 /home/sun/t1/MT92_S1_T1_estar_WCDMA_JB9_Ldata_20140711/mediatek/preloader/out/msdc.o
 .text          0x00000000        0x0 /home/sun/t1/MT92_S1_T1_estar_WCDMA_JB9_Ldata_20140711/mediatek/preloader/out/msdc_utils.o
 .data          0x00000000        0x0 /home/sun/t1/MT92_S1_T1_estar_WCDMA_JB9_Ldata_20140711/mediatek/preloader/out/msdc_utils.o
 .bss           0x00000000        0x0 /home/sun/t1/MT92_S1_T1_estar_WCDMA_JB9_Ldata_20140711/mediatek/preloader/out/msdc_utils.o
 .text.msdc_ntohl
                0x00000000       0x1e /home/sun/t1/MT92_S1_T1_estar_WCDMA_JB9_Ldata_20140711/mediatek/preloader/out/msdc_utils.o
 .note.GNU-stack
                0x00000000        0x0 /home/sun/t1/MT92_S1_T1_estar_WCDMA_JB9_Ldata_20140711/mediatek/preloader/out/msdc_utils.o
 .text          0x00000000        0x0 /home/sun/t1/MT92_S1_T1_estar_WCDMA_JB9_Ldata_20140711/mediatek/preloader/out/partition.o
 .data          0x00000000        0x0 /home/sun/t1/MT92_S1_T1_estar_WCDMA_JB9_Ldata_20140711/mediatek/preloader/out/partition.o
 .bss           0x00000000        0x0 /home/sun/t1/MT92_S1_T1_estar_WCDMA_JB9_Ldata_20140711/mediatek/preloader/out/partition.o
 .note.GNU-stack
                0x00000000        0x0 /home/sun/t1/MT92_S1_T1_estar_WCDMA_JB9_Ldata_20140711/mediatek/preloader/out/partition.o
 .text          0x00000000        0x0 /home/sun/t1/MT92_S1_T1_estar_WCDMA_JB9_Ldata_20140711/mediatek/preloader/out/part.o
 .data          0x00000000        0x0 /home/sun/t1/MT92_S1_T1_estar_WCDMA_JB9_Ldata_20140711/mediatek/preloader/out/part.o
 .bss           0x00000000        0x0 /home/sun/t1/MT92_S1_T1_estar_WCDMA_JB9_Ldata_20140711/mediatek/preloader/out/part.o
 .note.GNU-stack
                0x00000000        0x0 /home/sun/t1/MT92_S1_T1_estar_WCDMA_JB9_Ldata_20140711/mediatek/preloader/out/part.o
 .text          0x00000000        0x0 /home/sun/t1/MT92_S1_T1_estar_WCDMA_JB9_Ldata_20140711/mediatek/preloader/out/platform.o
 .data          0x00000000        0x0 /home/sun/t1/MT92_S1_T1_estar_WCDMA_JB9_Ldata_20140711/mediatek/preloader/out/platform.o
 .bss           0x00000000        0x0 /home/sun/t1/MT92_S1_T1_estar_WCDMA_JB9_Ldata_20140711/mediatek/preloader/out/platform.o
 .bss.g_boot_dev
                0x00000000       0x20 /home/sun/t1/MT92_S1_T1_estar_WCDMA_JB9_Ldata_20140711/mediatek/preloader/out/platform.o
 .note.GNU-stack
                0x00000000        0x0 /home/sun/t1/MT92_S1_T1_estar_WCDMA_JB9_Ldata_20140711/mediatek/preloader/out/platform.o
 .text          0x00000000        0x0 /home/sun/t1/MT92_S1_T1_estar_WCDMA_JB9_Ldata_20140711/mediatek/preloader/out/pll.o
 .data          0x00000000        0x0 /home/sun/t1/MT92_S1_T1_estar_WCDMA_JB9_Ldata_20140711/mediatek/preloader/out/pll.o
 .bss           0x00000000        0x0 /home/sun/t1/MT92_S1_T1_estar_WCDMA_JB9_Ldata_20140711/mediatek/preloader/out/pll.o
 .text.mt_mempll_cali
                0x00000000      0x1d0 /home/sun/t1/MT92_S1_T1_estar_WCDMA_JB9_Ldata_20140711/mediatek/preloader/out/pll.o
 .note.GNU-stack
                0x00000000        0x0 /home/sun/t1/MT92_S1_T1_estar_WCDMA_JB9_Ldata_20140711/mediatek/preloader/out/pll.o
 .text          0x00000000        0x0 /home/sun/t1/MT92_S1_T1_estar_WCDMA_JB9_Ldata_20140711/mediatek/preloader/out/pmic_6333.o
 .data          0x00000000        0x0 /home/sun/t1/MT92_S1_T1_estar_WCDMA_JB9_Ldata_20140711/mediatek/preloader/out/pmic_6333.o
 .bss           0x00000000        0x0 /home/sun/t1/MT92_S1_T1_estar_WCDMA_JB9_Ldata_20140711/mediatek/preloader/out/pmic_6333.o
 .note.GNU-stack
                0x00000000        0x0 /home/sun/t1/MT92_S1_T1_estar_WCDMA_JB9_Ldata_20140711/mediatek/preloader/out/pmic_6333.o
 .text          0x00000000        0x0 /home/sun/t1/MT92_S1_T1_estar_WCDMA_JB9_Ldata_20140711/mediatek/preloader/out/pmic.o
 .data          0x00000000        0x0 /home/sun/t1/MT92_S1_T1_estar_WCDMA_JB9_Ldata_20140711/mediatek/preloader/out/pmic.o
 .bss           0x00000000        0x0 /home/sun/t1/MT92_S1_T1_estar_WCDMA_JB9_Ldata_20140711/mediatek/preloader/out/pmic.o
 .text.pmic_detect_homekey
                0x00000000       0x3c /home/sun/t1/MT92_S1_T1_estar_WCDMA_JB9_Ldata_20140711/mediatek/preloader/out/pmic.o
 .note.GNU-stack
                0x00000000        0x0 /home/sun/t1/MT92_S1_T1_estar_WCDMA_JB9_Ldata_20140711/mediatek/preloader/out/pmic.o
 .text          0x00000000        0x0 /home/sun/t1/MT92_S1_T1_estar_WCDMA_JB9_Ldata_20140711/mediatek/preloader/out/pmic_wrap_init.o
 .data          0x00000000        0x0 /home/sun/t1/MT92_S1_T1_estar_WCDMA_JB9_Ldata_20140711/mediatek/preloader/out/pmic_wrap_init.o
 .bss           0x00000000        0x0 /home/sun/t1/MT92_S1_T1_estar_WCDMA_JB9_Ldata_20140711/mediatek/preloader/out/pmic_wrap_init.o
 .text.pwrap_dump_all_register
                0x00000000       0x80 /home/sun/t1/MT92_S1_T1_estar_WCDMA_JB9_Ldata_20140711/mediatek/preloader/out/pmic_wrap_init.o
 .note.GNU-stack
                0x00000000        0x0 /home/sun/t1/MT92_S1_T1_estar_WCDMA_JB9_Ldata_20140711/mediatek/preloader/out/pmic_wrap_init.o
 .text          0x00000000        0x0 /home/sun/t1/MT92_S1_T1_estar_WCDMA_JB9_Ldata_20140711/mediatek/preloader/out/print.o
 .data          0x00000000        0x0 /home/sun/t1/MT92_S1_T1_estar_WCDMA_JB9_Ldata_20140711/mediatek/preloader/out/print.o
 .bss           0x00000000        0x0 /home/sun/t1/MT92_S1_T1_estar_WCDMA_JB9_Ldata_20140711/mediatek/preloader/out/print.o
 .note.GNU-stack
                0x00000000        0x0 /home/sun/t1/MT92_S1_T1_estar_WCDMA_JB9_Ldata_20140711/mediatek/preloader/out/print.o
 .text          0x00000000        0x0 /home/sun/t1/MT92_S1_T1_estar_WCDMA_JB9_Ldata_20140711/mediatek/preloader/out/rtc.o
 .data          0x00000000        0x0 /home/sun/t1/MT92_S1_T1_estar_WCDMA_JB9_Ldata_20140711/mediatek/preloader/out/rtc.o
 .bss           0x00000000        0x0 /home/sun/t1/MT92_S1_T1_estar_WCDMA_JB9_Ldata_20140711/mediatek/preloader/out/rtc.o
 .text.rtc_rdwr_uart_bits
                0x00000000       0x48 /home/sun/t1/MT92_S1_T1_estar_WCDMA_JB9_Ldata_20140711/mediatek/preloader/out/rtc.o
 .note.GNU-stack
                0x00000000        0x0 /home/sun/t1/MT92_S1_T1_estar_WCDMA_JB9_Ldata_20140711/mediatek/preloader/out/rtc.o
 .text          0x00000000        0x0 /home/sun/t1/MT92_S1_T1_estar_WCDMA_JB9_Ldata_20140711/mediatek/preloader/out/sec_auth.o
 .data          0x00000000        0x0 /home/sun/t1/MT92_S1_T1_estar_WCDMA_JB9_Ldata_20140711/mediatek/preloader/out/sec_auth.o
 .bss           0x00000000        0x0 /home/sun/t1/MT92_S1_T1_estar_WCDMA_JB9_Ldata_20140711/mediatek/preloader/out/sec_auth.o
 .note.GNU-stack
                0x00000000        0x0 /home/sun/t1/MT92_S1_T1_estar_WCDMA_JB9_Ldata_20140711/mediatek/preloader/out/sec_auth.o
 .text          0x00000000        0x0 /home/sun/t1/MT92_S1_T1_estar_WCDMA_JB9_Ldata_20140711/mediatek/preloader/out/sec_boot.o
 .data          0x00000000        0x0 /home/sun/t1/MT92_S1_T1_estar_WCDMA_JB9_Ldata_20140711/mediatek/preloader/out/sec_boot.o
 .bss           0x00000000        0x0 /home/sun/t1/MT92_S1_T1_estar_WCDMA_JB9_Ldata_20140711/mediatek/preloader/out/sec_boot.o
 .note.GNU-stack
                0x00000000        0x0 /home/sun/t1/MT92_S1_T1_estar_WCDMA_JB9_Ldata_20140711/mediatek/preloader/out/sec_boot.o
 .text          0x00000000        0x0 /home/sun/t1/MT92_S1_T1_estar_WCDMA_JB9_Ldata_20140711/mediatek/preloader/out/sec_ctrl.o
 .data          0x00000000        0x0 /home/sun/t1/MT92_S1_T1_estar_WCDMA_JB9_Ldata_20140711/mediatek/preloader/out/sec_ctrl.o
 .bss           0x00000000        0x0 /home/sun/t1/MT92_S1_T1_estar_WCDMA_JB9_Ldata_20140711/mediatek/preloader/out/sec_ctrl.o
 .note.GNU-stack
                0x00000000        0x0 /home/sun/t1/MT92_S1_T1_estar_WCDMA_JB9_Ldata_20140711/mediatek/preloader/out/sec_ctrl.o
 .text          0x00000000        0x0 /home/sun/t1/MT92_S1_T1_estar_WCDMA_JB9_Ldata_20140711/mediatek/preloader/out/sec_flashtool_cfg.o
 .data          0x00000000        0x0 /home/sun/t1/MT92_S1_T1_estar_WCDMA_JB9_Ldata_20140711/mediatek/preloader/out/sec_flashtool_cfg.o
 .bss           0x00000000        0x0 /home/sun/t1/MT92_S1_T1_estar_WCDMA_JB9_Ldata_20140711/mediatek/preloader/out/sec_flashtool_cfg.o
 .note.GNU-stack
                0x00000000        0x0 /home/sun/t1/MT92_S1_T1_estar_WCDMA_JB9_Ldata_20140711/mediatek/preloader/out/sec_flashtool_cfg.o
 .text          0x00000000        0x0 /home/sun/t1/MT92_S1_T1_estar_WCDMA_JB9_Ldata_20140711/mediatek/preloader/out/sec_key.o
 .data          0x00000000        0x0 /home/sun/t1/MT92_S1_T1_estar_WCDMA_JB9_Ldata_20140711/mediatek/preloader/out/sec_key.o
 .bss           0x00000000        0x0 /home/sun/t1/MT92_S1_T1_estar_WCDMA_JB9_Ldata_20140711/mediatek/preloader/out/sec_key.o
 .note.GNU-stack
                0x00000000        0x0 /home/sun/t1/MT92_S1_T1_estar_WCDMA_JB9_Ldata_20140711/mediatek/preloader/out/sec_key.o
 .text          0x00000000        0x0 /home/sun/t1/MT92_S1_T1_estar_WCDMA_JB9_Ldata_20140711/mediatek/preloader/out/sec.o
 .data          0x00000000        0x0 /home/sun/t1/MT92_S1_T1_estar_WCDMA_JB9_Ldata_20140711/mediatek/preloader/out/sec.o
 .bss           0x00000000        0x0 /home/sun/t1/MT92_S1_T1_estar_WCDMA_JB9_Ldata_20140711/mediatek/preloader/out/sec.o
 .note.GNU-stack
                0x00000000        0x0 /home/sun/t1/MT92_S1_T1_estar_WCDMA_JB9_Ldata_20140711/mediatek/preloader/out/sec.o
 .text          0x00000000        0x0 /home/sun/t1/MT92_S1_T1_estar_WCDMA_JB9_Ldata_20140711/mediatek/preloader/out/sec_region.o
 .data          0x00000000        0x0 /home/sun/t1/MT92_S1_T1_estar_WCDMA_JB9_Ldata_20140711/mediatek/preloader/out/sec_region.o
 .bss           0x00000000        0x0 /home/sun/t1/MT92_S1_T1_estar_WCDMA_JB9_Ldata_20140711/mediatek/preloader/out/sec_region.o
 .text.da_region_check
                0x00000000       0x1c /home/sun/t1/MT92_S1_T1_estar_WCDMA_JB9_Ldata_20140711/mediatek/preloader/out/sec_region.o
 .note.GNU-stack
                0x00000000        0x0 /home/sun/t1/MT92_S1_T1_estar_WCDMA_JB9_Ldata_20140711/mediatek/preloader/out/sec_region.o
 .text          0x00000000        0x0 /home/sun/t1/MT92_S1_T1_estar_WCDMA_JB9_Ldata_20140711/mediatek/preloader/out/sec_rom_info.o
 .data          0x00000000        0x0 /home/sun/t1/MT92_S1_T1_estar_WCDMA_JB9_Ldata_20140711/mediatek/preloader/out/sec_rom_info.o
 .bss           0x00000000        0x0 /home/sun/t1/MT92_S1_T1_estar_WCDMA_JB9_Ldata_20140711/mediatek/preloader/out/sec_rom_info.o
 .note.GNU-stack
                0x00000000        0x0 /home/sun/t1/MT92_S1_T1_estar_WCDMA_JB9_Ldata_20140711/mediatek/preloader/out/sec_rom_info.o
 .text          0x00000000        0x0 /home/sun/t1/MT92_S1_T1_estar_WCDMA_JB9_Ldata_20140711/mediatek/preloader/out/sec_secroimg.o
 .data          0x00000000        0x0 /home/sun/t1/MT92_S1_T1_estar_WCDMA_JB9_Ldata_20140711/mediatek/preloader/out/sec_secroimg.o
 .bss           0x00000000        0x0 /home/sun/t1/MT92_S1_T1_estar_WCDMA_JB9_Ldata_20140711/mediatek/preloader/out/sec_secroimg.o
 .note.GNU-stack
                0x00000000        0x0 /home/sun/t1/MT92_S1_T1_estar_WCDMA_JB9_Ldata_20140711/mediatek/preloader/out/sec_secroimg.o
 .text          0x00000000        0x0 /home/sun/t1/MT92_S1_T1_estar_WCDMA_JB9_Ldata_20140711/mediatek/preloader/out/sec_util.o
 .data          0x00000000        0x0 /home/sun/t1/MT92_S1_T1_estar_WCDMA_JB9_Ldata_20140711/mediatek/preloader/out/sec_util.o
 .bss           0x00000000        0x0 /home/sun/t1/MT92_S1_T1_estar_WCDMA_JB9_Ldata_20140711/mediatek/preloader/out/sec_util.o
 .text.sec_set_usb_handshake_status
                0x00000000        0xc /home/sun/t1/MT92_S1_T1_estar_WCDMA_JB9_Ldata_20140711/mediatek/preloader/out/sec_util.o
 .text.sec_util_force_entering_fastboot_mode
                0x00000000       0x38 /home/sun/t1/MT92_S1_T1_estar_WCDMA_JB9_Ldata_20140711/mediatek/preloader/out/sec_util.o
 .note.GNU-stack
                0x00000000        0x0 /home/sun/t1/MT92_S1_T1_estar_WCDMA_JB9_Ldata_20140711/mediatek/preloader/out/sec_util.o
 .text          0x00000000        0x0 /home/sun/t1/MT92_S1_T1_estar_WCDMA_JB9_Ldata_20140711/mediatek/preloader/out/stdlib.o
 .data          0x00000000        0x0 /home/sun/t1/MT92_S1_T1_estar_WCDMA_JB9_Ldata_20140711/mediatek/preloader/out/stdlib.o
 .bss           0x00000000        0x0 /home/sun/t1/MT92_S1_T1_estar_WCDMA_JB9_Ldata_20140711/mediatek/preloader/out/stdlib.o
 .text.longjmperror
                0x00000000       0x18 /home/sun/t1/MT92_S1_T1_estar_WCDMA_JB9_Ldata_20140711/mediatek/preloader/out/stdlib.o
 .rodata.str1.1
                0x00000000        0xb /home/sun/t1/MT92_S1_T1_estar_WCDMA_JB9_Ldata_20140711/mediatek/preloader/out/stdlib.o
 .note.GNU-stack
                0x00000000        0x0 /home/sun/t1/MT92_S1_T1_estar_WCDMA_JB9_Ldata_20140711/mediatek/preloader/out/stdlib.o
 .text          0x00000000        0x0 /home/sun/t1/MT92_S1_T1_estar_WCDMA_JB9_Ldata_20140711/mediatek/preloader/out/string.o
 .data          0x00000000        0x0 /home/sun/t1/MT92_S1_T1_estar_WCDMA_JB9_Ldata_20140711/mediatek/preloader/out/string.o
 .bss           0x00000000        0x0 /home/sun/t1/MT92_S1_T1_estar_WCDMA_JB9_Ldata_20140711/mediatek/preloader/out/string.o
 .note.GNU-stack
                0x00000000        0x0 /home/sun/t1/MT92_S1_T1_estar_WCDMA_JB9_Ldata_20140711/mediatek/preloader/out/string.o
 .text          0x00000000        0x0 /home/sun/t1/MT92_S1_T1_estar_WCDMA_JB9_Ldata_20140711/mediatek/preloader/out/timer.o
 .data          0x00000000        0x0 /home/sun/t1/MT92_S1_T1_estar_WCDMA_JB9_Ldata_20140711/mediatek/preloader/out/timer.o
 .bss           0x00000000        0x0 /home/sun/t1/MT92_S1_T1_estar_WCDMA_JB9_Ldata_20140711/mediatek/preloader/out/timer.o
 .note.GNU-stack
                0x00000000        0x0 /home/sun/t1/MT92_S1_T1_estar_WCDMA_JB9_Ldata_20140711/mediatek/preloader/out/timer.o
 .text          0x00000000        0x0 /home/sun/t1/MT92_S1_T1_estar_WCDMA_JB9_Ldata_20140711/mediatek/preloader/out/uart.o
 .data          0x00000000        0x0 /home/sun/t1/MT92_S1_T1_estar_WCDMA_JB9_Ldata_20140711/mediatek/preloader/out/uart.o
 .bss           0x00000000        0x0 /home/sun/t1/MT92_S1_T1_estar_WCDMA_JB9_Ldata_20140711/mediatek/preloader/out/uart.o
 .text.serial_nonblock_getc
                0x00000000       0x10 /home/sun/t1/MT92_S1_T1_estar_WCDMA_JB9_Ldata_20140711/mediatek/preloader/out/uart.o
 .note.GNU-stack
                0x00000000        0x0 /home/sun/t1/MT92_S1_T1_estar_WCDMA_JB9_Ldata_20140711/mediatek/preloader/out/uart.o
 .text          0x00000000        0x0 /home/sun/t1/MT92_S1_T1_estar_WCDMA_JB9_Ldata_20140711/mediatek/preloader/out/usbd.o
 .data          0x00000000        0x0 /home/sun/t1/MT92_S1_T1_estar_WCDMA_JB9_Ldata_20140711/mediatek/preloader/out/usbd.o
 .bss           0x00000000        0x0 /home/sun/t1/MT92_S1_T1_estar_WCDMA_JB9_Ldata_20140711/mediatek/preloader/out/usbd.o
 .text.udc_disable
                0x00000000        0x2 /home/sun/t1/MT92_S1_T1_estar_WCDMA_JB9_Ldata_20140711/mediatek/preloader/out/usbd.o
 .text.get_linestate
                0x00000000       0x2c /home/sun/t1/MT92_S1_T1_estar_WCDMA_JB9_Ldata_20140711/mediatek/preloader/out/usbd.o
 .note.GNU-stack
                0x00000000        0x0 /home/sun/t1/MT92_S1_T1_estar_WCDMA_JB9_Ldata_20140711/mediatek/preloader/out/usbd.o
 .text          0x00000000        0x0 /home/sun/t1/MT92_S1_T1_estar_WCDMA_JB9_Ldata_20140711/mediatek/preloader/out/usbphy.o
 .data          0x00000000        0x0 /home/sun/t1/MT92_S1_T1_estar_WCDMA_JB9_Ldata_20140711/mediatek/preloader/out/usbphy.o
 .bss           0x00000000        0x0 /home/sun/t1/MT92_S1_T1_estar_WCDMA_JB9_Ldata_20140711/mediatek/preloader/out/usbphy.o
 .text.mt_usb_calibraion
                0x00000000        0x2 /home/sun/t1/MT92_S1_T1_estar_WCDMA_JB9_Ldata_20140711/mediatek/preloader/out/usbphy.o
 .text.mt_usb_phy_calibraion
                0x00000000        0x2 /home/sun/t1/MT92_S1_T1_estar_WCDMA_JB9_Ldata_20140711/mediatek/preloader/out/usbphy.o
 .text.mt_usb11_phy_savecurrent
                0x00000000        0x2 /home/sun/t1/MT92_S1_T1_estar_WCDMA_JB9_Ldata_20140711/mediatek/preloader/out/usbphy.o
 .note.GNU-stack
                0x00000000        0x0 /home/sun/t1/MT92_S1_T1_estar_WCDMA_JB9_Ldata_20140711/mediatek/preloader/out/usbphy.o
 .text          0x00000000        0x0 /home/sun/t1/MT92_S1_T1_estar_WCDMA_JB9_Ldata_20140711/mediatek/preloader/out/usbtty.o
 .data          0x00000000        0x0 /home/sun/t1/MT92_S1_T1_estar_WCDMA_JB9_Ldata_20140711/mediatek/preloader/out/usbtty.o
 .bss           0x00000000        0x0 /home/sun/t1/MT92_S1_T1_estar_WCDMA_JB9_Ldata_20140711/mediatek/preloader/out/usbtty.o
 .text.mt_usbtty_tstc
                0x00000000       0x18 /home/sun/t1/MT92_S1_T1_estar_WCDMA_JB9_Ldata_20140711/mediatek/preloader/out/usbtty.o
 .text.mt_usbtty_getc
                0x00000000       0x28 /home/sun/t1/MT92_S1_T1_estar_WCDMA_JB9_Ldata_20140711/mediatek/preloader/out/usbtty.o
 .text.mt_usbtty_putc
                0x00000000       0x38 /home/sun/t1/MT92_S1_T1_estar_WCDMA_JB9_Ldata_20140711/mediatek/preloader/out/usbtty.o
 .bss.serialstate
                0x00000000        0x2 /home/sun/t1/MT92_S1_T1_estar_WCDMA_JB9_Ldata_20140711/mediatek/preloader/out/usbtty.o
 .note.GNU-stack
                0x00000000        0x0 /home/sun/t1/MT92_S1_T1_estar_WCDMA_JB9_Ldata_20140711/mediatek/preloader/out/usbtty.o
 .text          0x00000000        0x0 /home/sun/t1/MT92_S1_T1_estar_WCDMA_JB9_Ldata_20140711/mediatek/preloader/out/wdt.o
 .data          0x00000000        0x0 /home/sun/t1/MT92_S1_T1_estar_WCDMA_JB9_Ldata_20140711/mediatek/preloader/out/wdt.o
 .bss           0x00000000        0x0 /home/sun/t1/MT92_S1_T1_estar_WCDMA_JB9_Ldata_20140711/mediatek/preloader/out/wdt.o
 .text.mtk_wdt_disable
                0x00000000       0x14 /home/sun/t1/MT92_S1_T1_estar_WCDMA_JB9_Ldata_20140711/mediatek/preloader/out/wdt.o
 .text.mtk_wdt_sw_reset
                0x00000000       0x24 /home/sun/t1/MT92_S1_T1_estar_WCDMA_JB9_Ldata_20140711/mediatek/preloader/out/wdt.o
 .text.mtk_is_rgu_trigger_reset
                0x00000000       0x14 /home/sun/t1/MT92_S1_T1_estar_WCDMA_JB9_Ldata_20140711/mediatek/preloader/out/wdt.o
 .text.rgu_dram_reserved
                0x00000000       0x74 /home/sun/t1/MT92_S1_T1_estar_WCDMA_JB9_Ldata_20140711/mediatek/preloader/out/wdt.o
 .text.rgu_is_reserve_ddr_enabled
                0x00000000       0x10 /home/sun/t1/MT92_S1_T1_estar_WCDMA_JB9_Ldata_20140711/mediatek/preloader/out/wdt.o
 .text.rgu_is_dram_slf
                0x00000000       0x20 /home/sun/t1/MT92_S1_T1_estar_WCDMA_JB9_Ldata_20140711/mediatek/preloader/out/wdt.o
 .text.rgu_release_rg_dramc_conf_iso
                0x00000000       0x28 /home/sun/t1/MT92_S1_T1_estar_WCDMA_JB9_Ldata_20140711/mediatek/preloader/out/wdt.o
 .text.rgu_release_rg_dramc_iso
                0x00000000       0x28 /home/sun/t1/MT92_S1_T1_estar_WCDMA_JB9_Ldata_20140711/mediatek/preloader/out/wdt.o
 .text.rgu_release_rg_dramc_sref
                0x00000000       0x28 /home/sun/t1/MT92_S1_T1_estar_WCDMA_JB9_Ldata_20140711/mediatek/preloader/out/wdt.o
 .text.rgu_is_reserve_ddr_mode_success
                0x00000000       0x30 /home/sun/t1/MT92_S1_T1_estar_WCDMA_JB9_Ldata_20140711/mediatek/preloader/out/wdt.o
 .text.rgu_swsys_reset
                0x00000000       0x3c /home/sun/t1/MT92_S1_T1_estar_WCDMA_JB9_Ldata_20140711/mediatek/preloader/out/wdt.o
 .rodata.__func__.1381
                0x00000000       0x1a /home/sun/t1/MT92_S1_T1_estar_WCDMA_JB9_Ldata_20140711/mediatek/preloader/out/wdt.o
 .rodata.__func__.1358
                0x00000000       0x12 /home/sun/t1/MT92_S1_T1_estar_WCDMA_JB9_Ldata_20140711/mediatek/preloader/out/wdt.o
 .rodata.__func__.1371
                0x00000000       0x1e /home/sun/t1/MT92_S1_T1_estar_WCDMA_JB9_Ldata_20140711/mediatek/preloader/out/wdt.o
 .rodata.__func__.1376
                0x00000000       0x19 /home/sun/t1/MT92_S1_T1_estar_WCDMA_JB9_Ldata_20140711/mediatek/preloader/out/wdt.o
 .note.GNU-stack
                0x00000000        0x0 /home/sun/t1/MT92_S1_T1_estar_WCDMA_JB9_Ldata_20140711/mediatek/preloader/out/wdt.o
 .text          0x00000000        0x0 /home/sun/t1/MT92_S1_T1_estar_WCDMA_JB9_Ldata_20140711/mediatek/platform/mt6592/preloader/src/SecLib.a(seclib_boot.o)
 .data          0x00000000        0x0 /home/sun/t1/MT92_S1_T1_estar_WCDMA_JB9_Ldata_20140711/mediatek/platform/mt6592/preloader/src/SecLib.a(seclib_boot.o)
 .bss           0x00000000        0x0 /home/sun/t1/MT92_S1_T1_estar_WCDMA_JB9_Ldata_20140711/mediatek/platform/mt6592/preloader/src/SecLib.a(seclib_boot.o)
 .text.seclib_image_info_update
                0x00000000        0x8 /home/sun/t1/MT92_S1_T1_estar_WCDMA_JB9_Ldata_20140711/mediatek/platform/mt6592/preloader/src/SecLib.a(seclib_boot.o)
 .text.seclib_image_info_add
                0x00000000        0x8 /home/sun/t1/MT92_S1_T1_estar_WCDMA_JB9_Ldata_20140711/mediatek/platform/mt6592/preloader/src/SecLib.a(seclib_boot.o)
 .note.GNU-stack
                0x00000000        0x0 /home/sun/t1/MT92_S1_T1_estar_WCDMA_JB9_Ldata_20140711/mediatek/platform/mt6592/preloader/src/SecLib.a(seclib_boot.o)
 .text          0x00000000        0x0 /home/sun/t1/MT92_S1_T1_estar_WCDMA_JB9_Ldata_20140711/mediatek/platform/mt6592/preloader/src/SecLib.a(seclib_dl.o)
 .data          0x00000000        0x0 /home/sun/t1/MT92_S1_T1_estar_WCDMA_JB9_Ldata_20140711/mediatek/platform/mt6592/preloader/src/SecLib.a(seclib_dl.o)
 .bss           0x00000000        0x0 /home/sun/t1/MT92_S1_T1_estar_WCDMA_JB9_Ldata_20140711/mediatek/platform/mt6592/preloader/src/SecLib.a(seclib_dl.o)
 .note.GNU-stack
                0x00000000        0x0 /home/sun/t1/MT92_S1_T1_estar_WCDMA_JB9_Ldata_20140711/mediatek/platform/mt6592/preloader/src/SecLib.a(seclib_dl.o)
 .text          0x00000000        0x0 /home/sun/t1/MT92_S1_T1_estar_WCDMA_JB9_Ldata_20140711/mediatek/platform/mt6592/preloader/src/SecLib.a(seclib_img_hash.o)
 .data          0x00000000        0x0 /home/sun/t1/MT92_S1_T1_estar_WCDMA_JB9_Ldata_20140711/mediatek/platform/mt6592/preloader/src/SecLib.a(seclib_img_hash.o)
 .bss           0x00000000        0x0 /home/sun/t1/MT92_S1_T1_estar_WCDMA_JB9_Ldata_20140711/mediatek/platform/mt6592/preloader/src/SecLib.a(seclib_img_hash.o)
 .note.GNU-stack
                0x00000000        0x0 /home/sun/t1/MT92_S1_T1_estar_WCDMA_JB9_Ldata_20140711/mediatek/platform/mt6592/preloader/src/SecLib.a(seclib_img_hash.o)
 .text          0x00000000        0x0 /home/sun/t1/MT92_S1_T1_estar_WCDMA_JB9_Ldata_20140711/mediatek/platform/mt6592/preloader/src/SecLib.a(seclib_img_verify.o)
 .data          0x00000000        0x0 /home/sun/t1/MT92_S1_T1_estar_WCDMA_JB9_Ldata_20140711/mediatek/platform/mt6592/preloader/src/SecLib.a(seclib_img_verify.o)
 .bss           0x00000000        0x0 /home/sun/t1/MT92_S1_T1_estar_WCDMA_JB9_Ldata_20140711/mediatek/platform/mt6592/preloader/src/SecLib.a(seclib_img_verify.o)
 .note.GNU-stack
                0x00000000        0x0 /home/sun/t1/MT92_S1_T1_estar_WCDMA_JB9_Ldata_20140711/mediatek/platform/mt6592/preloader/src/SecLib.a(seclib_img_verify.o)
 .text          0x00000000        0x0 /home/sun/t1/MT92_S1_T1_estar_WCDMA_JB9_Ldata_20140711/mediatek/platform/mt6592/preloader/src/SecLib.a(seclib_key.o)
 .data          0x00000000        0x0 /home/sun/t1/MT92_S1_T1_estar_WCDMA_JB9_Ldata_20140711/mediatek/platform/mt6592/preloader/src/SecLib.a(seclib_key.o)
 .bss           0x00000000        0x0 /home/sun/t1/MT92_S1_T1_estar_WCDMA_JB9_Ldata_20140711/mediatek/platform/mt6592/preloader/src/SecLib.a(seclib_key.o)
 .note.GNU-stack
                0x00000000        0x0 /home/sun/t1/MT92_S1_T1_estar_WCDMA_JB9_Ldata_20140711/mediatek/platform/mt6592/preloader/src/SecLib.a(seclib_key.o)
 .text          0x00000000        0x0 /home/sun/t1/MT92_S1_T1_estar_WCDMA_JB9_Ldata_20140711/mediatek/platform/mt6592/preloader/src/SecLib.a(seclib.o)
 .data          0x00000000        0x0 /home/sun/t1/MT92_S1_T1_estar_WCDMA_JB9_Ldata_20140711/mediatek/platform/mt6592/preloader/src/SecLib.a(seclib.o)
 .bss           0x00000000        0x0 /home/sun/t1/MT92_S1_T1_estar_WCDMA_JB9_Ldata_20140711/mediatek/platform/mt6592/preloader/src/SecLib.a(seclib.o)
 .note.GNU-stack
                0x00000000        0x0 /home/sun/t1/MT92_S1_T1_estar_WCDMA_JB9_Ldata_20140711/mediatek/platform/mt6592/preloader/src/SecLib.a(seclib.o)
 .text          0x00000000        0x0 /home/sun/t1/MT92_S1_T1_estar_WCDMA_JB9_Ldata_20140711/mediatek/platform/mt6592/preloader/src/SecLib.a(seclib_secroimg.o)
 .data          0x00000000        0x0 /home/sun/t1/MT92_S1_T1_estar_WCDMA_JB9_Ldata_20140711/mediatek/platform/mt6592/preloader/src/SecLib.a(seclib_secroimg.o)
 .bss           0x00000000        0x0 /home/sun/t1/MT92_S1_T1_estar_WCDMA_JB9_Ldata_20140711/mediatek/platform/mt6592/preloader/src/SecLib.a(seclib_secroimg.o)
 .note.GNU-stack
                0x00000000        0x0 /home/sun/t1/MT92_S1_T1_estar_WCDMA_JB9_Ldata_20140711/mediatek/platform/mt6592/preloader/src/SecLib.a(seclib_secroimg.o)
 .text          0x00000000        0x0 /home/sun/t1/MT92_S1_T1_estar_WCDMA_JB9_Ldata_20140711/mediatek/platform/mt6592/preloader/src/SecLib.a(seclib_sej_export.o)
 .data          0x00000000        0x0 /home/sun/t1/MT92_S1_T1_estar_WCDMA_JB9_Ldata_20140711/mediatek/platform/mt6592/preloader/src/SecLib.a(seclib_sej_export.o)
 .bss           0x00000000        0x0 /home/sun/t1/MT92_S1_T1_estar_WCDMA_JB9_Ldata_20140711/mediatek/platform/mt6592/preloader/src/SecLib.a(seclib_sej_export.o)
 .text.sp_sej_deinit
                0x00000000        0x4 /home/sun/t1/MT92_S1_T1_estar_WCDMA_JB9_Ldata_20140711/mediatek/platform/mt6592/preloader/src/SecLib.a(seclib_sej_export.o)
 .note.GNU-stack
                0x00000000        0x0 /home/sun/t1/MT92_S1_T1_estar_WCDMA_JB9_Ldata_20140711/mediatek/platform/mt6592/preloader/src/SecLib.a(seclib_sej_export.o)
 .text          0x00000000        0x0 /home/sun/t1/MT92_S1_T1_estar_WCDMA_JB9_Ldata_20140711/mediatek/platform/mt6592/preloader/src/SecLib.a(seclib_util.o)
 .data          0x00000000        0x0 /home/sun/t1/MT92_S1_T1_estar_WCDMA_JB9_Ldata_20140711/mediatek/platform/mt6592/preloader/src/SecLib.a(seclib_util.o)
 .bss           0x00000000        0x0 /home/sun/t1/MT92_S1_T1_estar_WCDMA_JB9_Ldata_20140711/mediatek/platform/mt6592/preloader/src/SecLib.a(seclib_util.o)
 .note.GNU-stack
                0x00000000        0x0 /home/sun/t1/MT92_S1_T1_estar_WCDMA_JB9_Ldata_20140711/mediatek/platform/mt6592/preloader/src/SecLib.a(seclib_util.o)
 .text          0x00000000        0x0 /home/sun/t1/MT92_S1_T1_estar_WCDMA_JB9_Ldata_20140711/mediatek/platform/mt6592/preloader/src/SecLib.a(weak_auth.o)
 .data          0x00000000        0x0 /home/sun/t1/MT92_S1_T1_estar_WCDMA_JB9_Ldata_20140711/mediatek/platform/mt6592/preloader/src/SecLib.a(weak_auth.o)
 .bss           0x00000000        0x0 /home/sun/t1/MT92_S1_T1_estar_WCDMA_JB9_Ldata_20140711/mediatek/platform/mt6592/preloader/src/SecLib.a(weak_auth.o)
 .text.seclib_rsa_init
                0x00000000        0x8 /home/sun/t1/MT92_S1_T1_estar_WCDMA_JB9_Ldata_20140711/mediatek/platform/mt6592/preloader/src/SecLib.a(weak_auth.o)
 .note.GNU-stack
                0x00000000        0x0 /home/sun/t1/MT92_S1_T1_estar_WCDMA_JB9_Ldata_20140711/mediatek/platform/mt6592/preloader/src/SecLib.a(weak_auth.o)
 .text          0x00000000        0x0 /home/sun/t1/MT92_S1_T1_estar_WCDMA_JB9_Ldata_20140711/mediatek/platform/mt6592/preloader/src/SecLib.a(seccfg_crypto.o)
 .data          0x00000000        0x0 /home/sun/t1/MT92_S1_T1_estar_WCDMA_JB9_Ldata_20140711/mediatek/platform/mt6592/preloader/src/SecLib.a(seccfg_crypto.o)
 .bss           0x00000000        0x0 /home/sun/t1/MT92_S1_T1_estar_WCDMA_JB9_Ldata_20140711/mediatek/platform/mt6592/preloader/src/SecLib.a(seccfg_crypto.o)
 .note.GNU-stack
                0x00000000        0x0 /home/sun/t1/MT92_S1_T1_estar_WCDMA_JB9_Ldata_20140711/mediatek/platform/mt6592/preloader/src/SecLib.a(seccfg_crypto.o)
 .text          0x00000000        0x0 /home/sun/t1/MT92_S1_T1_estar_WCDMA_JB9_Ldata_20140711/mediatek/platform/mt6592/preloader/src/security/auth/DaVerifyLib.a(auth.o)
 .data          0x00000000        0x0 /home/sun/t1/MT92_S1_T1_estar_WCDMA_JB9_Ldata_20140711/mediatek/platform/mt6592/preloader/src/security/auth/DaVerifyLib.a(auth.o)
 .bss           0x00000000        0x0 /home/sun/t1/MT92_S1_T1_estar_WCDMA_JB9_Ldata_20140711/mediatek/platform/mt6592/preloader/src/security/auth/DaVerifyLib.a(auth.o)
 .note.GNU-stack
                0x00000000        0x0 /home/sun/t1/MT92_S1_T1_estar_WCDMA_JB9_Ldata_20140711/mediatek/platform/mt6592/preloader/src/security/auth/DaVerifyLib.a(auth.o)
 .text          0x00000000        0x0 /home/sun/t1/MT92_S1_T1_estar_WCDMA_JB9_Ldata_20140711/mediatek/platform/mt6592/preloader/src/security/auth/DaVerifyLib.a(bgn_io.o)
 .data          0x00000000        0x0 /home/sun/t1/MT92_S1_T1_estar_WCDMA_JB9_Ldata_20140711/mediatek/platform/mt6592/preloader/src/security/auth/DaVerifyLib.a(bgn_io.o)
 .bss           0x00000000        0x0 /home/sun/t1/MT92_S1_T1_estar_WCDMA_JB9_Ldata_20140711/mediatek/platform/mt6592/preloader/src/security/auth/DaVerifyLib.a(bgn_io.o)
 .note.GNU-stack
                0x00000000        0x0 /home/sun/t1/MT92_S1_T1_estar_WCDMA_JB9_Ldata_20140711/mediatek/platform/mt6592/preloader/src/security/auth/DaVerifyLib.a(bgn_io.o)
 .text          0x00000000        0x0 /home/sun/t1/MT92_S1_T1_estar_WCDMA_JB9_Ldata_20140711/mediatek/platform/mt6592/preloader/src/security/auth/DaVerifyLib.a(bgn_util.o)
 .data          0x00000000        0x0 /home/sun/t1/MT92_S1_T1_estar_WCDMA_JB9_Ldata_20140711/mediatek/platform/mt6592/preloader/src/security/auth/DaVerifyLib.a(bgn_util.o)
 .bss           0x00000000        0x0 /home/sun/t1/MT92_S1_T1_estar_WCDMA_JB9_Ldata_20140711/mediatek/platform/mt6592/preloader/src/security/auth/DaVerifyLib.a(bgn_util.o)
 .text.bgn_swap
                0x00000000       0x48 /home/sun/t1/MT92_S1_T1_estar_WCDMA_JB9_Ldata_20140711/mediatek/platform/mt6592/preloader/src/security/auth/DaVerifyLib.a(bgn_util.o)
 .text.bgn_lsb  0x00000000       0x54 /home/sun/t1/MT92_S1_T1_estar_WCDMA_JB9_Ldata_20140711/mediatek/platform/mt6592/preloader/src/security/auth/DaVerifyLib.a(bgn_util.o)
 .text.bgn_div_int
                0x00000000       0x40 /home/sun/t1/MT92_S1_T1_estar_WCDMA_JB9_Ldata_20140711/mediatek/platform/mt6592/preloader/src/security/auth/DaVerifyLib.a(bgn_util.o)
 .text.bgn_mod_int
                0x00000000       0xc8 /home/sun/t1/MT92_S1_T1_estar_WCDMA_JB9_Ldata_20140711/mediatek/platform/mt6592/preloader/src/security/auth/DaVerifyLib.a(bgn_util.o)
 .note.GNU-stack
                0x00000000        0x0 /home/sun/t1/MT92_S1_T1_estar_WCDMA_JB9_Ldata_20140711/mediatek/platform/mt6592/preloader/src/security/auth/DaVerifyLib.a(bgn_util.o)
 .text          0x00000000        0x0 /home/sun/t1/MT92_S1_T1_estar_WCDMA_JB9_Ldata_20140711/mediatek/platform/mt6592/preloader/src/security/auth/DaVerifyLib.a(rsa.o)
 .data          0x00000000        0x0 /home/sun/t1/MT92_S1_T1_estar_WCDMA_JB9_Ldata_20140711/mediatek/platform/mt6592/preloader/src/security/auth/DaVerifyLib.a(rsa.o)
 .bss           0x00000000        0x0 /home/sun/t1/MT92_S1_T1_estar_WCDMA_JB9_Ldata_20140711/mediatek/platform/mt6592/preloader/src/security/auth/DaVerifyLib.a(rsa.o)
 .text.rsa_init
                0x00000000       0x38 /home/sun/t1/MT92_S1_T1_estar_WCDMA_JB9_Ldata_20140711/mediatek/platform/mt6592/preloader/src/security/auth/DaVerifyLib.a(rsa.o)
 .text.rsa_free
                0x00000000       0x3c /home/sun/t1/MT92_S1_T1_estar_WCDMA_JB9_Ldata_20140711/mediatek/platform/mt6592/preloader/src/security/auth/DaVerifyLib.a(rsa.o)
 .bss.rsa_ci    0x00000000       0x80 /home/sun/t1/MT92_S1_T1_estar_WCDMA_JB9_Ldata_20140711/mediatek/platform/mt6592/preloader/src/security/auth/DaVerifyLib.a(rsa.o)
 .note.GNU-stack
                0x00000000        0x0 /home/sun/t1/MT92_S1_T1_estar_WCDMA_JB9_Ldata_20140711/mediatek/platform/mt6592/preloader/src/security/auth/DaVerifyLib.a(rsa.o)
 .text          0x00000000        0x0 /home/sun/t1/MT92_S1_T1_estar_WCDMA_JB9_Ldata_20140711/mediatek/platform/mt6592/preloader/src/security/auth/DaVerifyLib.a(sha1.o)
 .data          0x00000000        0x0 /home/sun/t1/MT92_S1_T1_estar_WCDMA_JB9_Ldata_20140711/mediatek/platform/mt6592/preloader/src/security/auth/DaVerifyLib.a(sha1.o)
 .bss           0x00000000        0x0 /home/sun/t1/MT92_S1_T1_estar_WCDMA_JB9_Ldata_20140711/mediatek/platform/mt6592/preloader/src/security/auth/DaVerifyLib.a(sha1.o)
 .note.GNU-stack
                0x00000000        0x0 /home/sun/t1/MT92_S1_T1_estar_WCDMA_JB9_Ldata_20140711/mediatek/platform/mt6592/preloader/src/security/auth/DaVerifyLib.a(sha1.o)
 .text          0x00000000        0x0 /home/sun/t1/MT92_S1_T1_estar_WCDMA_JB9_Ldata_20140711/mediatek/platform/mt6592/preloader/src/security/auth/DaVerifyLib.a(stdlib.o)
 .data          0x00000000        0x0 /home/sun/t1/MT92_S1_T1_estar_WCDMA_JB9_Ldata_20140711/mediatek/platform/mt6592/preloader/src/security/auth/DaVerifyLib.a(stdlib.o)
 .bss           0x00000000        0x0 /home/sun/t1/MT92_S1_T1_estar_WCDMA_JB9_Ldata_20140711/mediatek/platform/mt6592/preloader/src/security/auth/DaVerifyLib.a(stdlib.o)
 .note.GNU-stack
                0x00000000        0x0 /home/sun/t1/MT92_S1_T1_estar_WCDMA_JB9_Ldata_20140711/mediatek/platform/mt6592/preloader/src/security/auth/DaVerifyLib.a(stdlib.o)
 .text          0x00000000        0x0 /home/sun/t1/MT92_S1_T1_estar_WCDMA_JB9_Ldata_20140711/mediatek/platform/mt6592/preloader/src/security/auth/DaVerifyLib.a(bgn_core.o)
 .data          0x00000000        0x0 /home/sun/t1/MT92_S1_T1_estar_WCDMA_JB9_Ldata_20140711/mediatek/platform/mt6592/preloader/src/security/auth/DaVerifyLib.a(bgn_core.o)
 .bss           0x00000000        0x0 /home/sun/t1/MT92_S1_T1_estar_WCDMA_JB9_Ldata_20140711/mediatek/platform/mt6592/preloader/src/security/auth/DaVerifyLib.a(bgn_core.o)
 .note.GNU-stack
                0x00000000        0x0 /home/sun/t1/MT92_S1_T1_estar_WCDMA_JB9_Ldata_20140711/mediatek/platform/mt6592/preloader/src/security/auth/DaVerifyLib.a(bgn_core.o)
 .text          0x00000000        0x0 /home/sun/t1/MT92_S1_T1_estar_WCDMA_JB9_Ldata_20140711/mediatek/platform/mt6592/preloader/src/security/auth/DaVerifyLib.a(montg.o)
 .data          0x00000000        0x0 /home/sun/t1/MT92_S1_T1_estar_WCDMA_JB9_Ldata_20140711/mediatek/platform/mt6592/preloader/src/security/auth/DaVerifyLib.a(montg.o)
 .bss           0x00000000        0x0 /home/sun/t1/MT92_S1_T1_estar_WCDMA_JB9_Ldata_20140711/mediatek/platform/mt6592/preloader/src/security/auth/DaVerifyLib.a(montg.o)
 .note.GNU-stack
                0x00000000        0x0 /home/sun/t1/MT92_S1_T1_estar_WCDMA_JB9_Ldata_20140711/mediatek/platform/mt6592/preloader/src/security/auth/DaVerifyLib.a(montg.o)
 .text          0x00000000        0x0 /home/sun/t1/MT92_S1_T1_estar_WCDMA_JB9_Ldata_20140711/mediatek/platform/mt6592/preloader/src/SecPlat.a(efuse.o)
 .data          0x00000000        0x0 /home/sun/t1/MT92_S1_T1_estar_WCDMA_JB9_Ldata_20140711/mediatek/platform/mt6592/preloader/src/SecPlat.a(efuse.o)
 .bss           0x00000000        0x0 /home/sun/t1/MT92_S1_T1_estar_WCDMA_JB9_Ldata_20140711/mediatek/platform/mt6592/preloader/src/SecPlat.a(efuse.o)
 .note.GNU-stack
                0x00000000        0x0 /home/sun/t1/MT92_S1_T1_estar_WCDMA_JB9_Ldata_20140711/mediatek/platform/mt6592/preloader/src/SecPlat.a(efuse.o)
 .text          0x00000000        0x0 /home/sun/t1/MT92_S1_T1_estar_WCDMA_JB9_Ldata_20140711/mediatek/platform/mt6592/preloader/src/SecPlat.a(meta.o)
 .data          0x00000000        0x0 /home/sun/t1/MT92_S1_T1_estar_WCDMA_JB9_Ldata_20140711/mediatek/platform/mt6592/preloader/src/SecPlat.a(meta.o)
 .bss           0x00000000        0x0 /home/sun/t1/MT92_S1_T1_estar_WCDMA_JB9_Ldata_20140711/mediatek/platform/mt6592/preloader/src/SecPlat.a(meta.o)
 .note.GNU-stack
                0x00000000        0x0 /home/sun/t1/MT92_S1_T1_estar_WCDMA_JB9_Ldata_20140711/mediatek/platform/mt6592/preloader/src/SecPlat.a(meta.o)
 .text          0x00000000        0x0 /home/sun/t1/MT92_S1_T1_estar_WCDMA_JB9_Ldata_20140711/mediatek/platform/mt6592/preloader/src/SecPlat.a(seclib_region.o)
 .data          0x00000000        0x0 /home/sun/t1/MT92_S1_T1_estar_WCDMA_JB9_Ldata_20140711/mediatek/platform/mt6592/preloader/src/SecPlat.a(seclib_region.o)
 .bss           0x00000000        0x0 /home/sun/t1/MT92_S1_T1_estar_WCDMA_JB9_Ldata_20140711/mediatek/platform/mt6592/preloader/src/SecPlat.a(seclib_region.o)
 .note.GNU-stack
                0x00000000        0x0 /home/sun/t1/MT92_S1_T1_estar_WCDMA_JB9_Ldata_20140711/mediatek/platform/mt6592/preloader/src/SecPlat.a(seclib_region.o)
 .text          0x00000000        0x0 /home/sun/t1/MT92_S1_T1_estar_WCDMA_JB9_Ldata_20140711/mediatek/platform/mt6592/preloader/src/SecPlat.a(sej_hk.o)
 .data          0x00000000        0x0 /home/sun/t1/MT92_S1_T1_estar_WCDMA_JB9_Ldata_20140711/mediatek/platform/mt6592/preloader/src/SecPlat.a(sej_hk.o)
 .bss           0x00000000        0x0 /home/sun/t1/MT92_S1_T1_estar_WCDMA_JB9_Ldata_20140711/mediatek/platform/mt6592/preloader/src/SecPlat.a(sej_hk.o)
 .rodata.g_AC_BOOTROM_SWOTP
                0x00000000       0x20 /home/sun/t1/MT92_S1_T1_estar_WCDMA_JB9_Ldata_20140711/mediatek/platform/mt6592/preloader/src/SecPlat.a(sej_hk.o)
 .note.GNU-stack
                0x00000000        0x0 /home/sun/t1/MT92_S1_T1_estar_WCDMA_JB9_Ldata_20140711/mediatek/platform/mt6592/preloader/src/SecPlat.a(sej_hk.o)
 .text          0x00000000        0x0 /home/sun/t1/MT92_S1_T1_estar_WCDMA_JB9_Ldata_20140711/mediatek/platform/mt6592/preloader/src/SecPlat.a(sej_sk.o)
 .data          0x00000000        0x0 /home/sun/t1/MT92_S1_T1_estar_WCDMA_JB9_Ldata_20140711/mediatek/platform/mt6592/preloader/src/SecPlat.a(sej_sk.o)
 .bss           0x00000000        0x0 /home/sun/t1/MT92_S1_T1_estar_WCDMA_JB9_Ldata_20140711/mediatek/platform/mt6592/preloader/src/SecPlat.a(sej_sk.o)
 .note.GNU-stack
                0x00000000        0x0 /home/sun/t1/MT92_S1_T1_estar_WCDMA_JB9_Ldata_20140711/mediatek/platform/mt6592/preloader/src/SecPlat.a(sej_sk.o)

Memory map

 ** file header
                0x00102000       0x34
 ** segment headers
                0x00102034       0x80

.bss            0x00102180     0x8084
 .bss.blkdev_list
                0x00102180        0x4 /home/sun/t1/MT92_S1_T1_estar_WCDMA_JB9_Ldata_20140711/mediatek/preloader/out/blkdev.o
 .bss.g_usb_input_buf
                0x00102184      0x400 /home/sun/t1/MT92_S1_T1_estar_WCDMA_JB9_Ldata_20140711/mediatek/preloader/out/circbuf.o
 .bss.g_usb_output_buf
                0x00102584      0x400 /home/sun/t1/MT92_S1_T1_estar_WCDMA_JB9_Ldata_20140711/mediatek/preloader/out/circbuf.o
 .bss.g_da_verified
                0x00102984        0x1 /home/sun/t1/MT92_S1_T1_estar_WCDMA_JB9_Ldata_20140711/mediatek/preloader/out/download.o
                0x00102984                g_da_verified
 .bss.dlcomport
                0x00102988        0x4 /home/sun/t1/MT92_S1_T1_estar_WCDMA_JB9_Ldata_20140711/mediatek/preloader/out/download.o
 .bss.g_dram_buf
                0x0010298c        0x4 /home/sun/t1/MT92_S1_T1_estar_WCDMA_JB9_Ldata_20140711/mediatek/preloader/out/dram_buffer.o
                0x0010298c                g_dram_buf
 .bss.opt_tx_dqs
                0x00102990        0x4 /home/sun/t1/MT92_S1_T1_estar_WCDMA_JB9_Ldata_20140711/mediatek/preloader/out/dramc_calib.o
                0x00102990                opt_tx_dqs
 .bss.opt_tx_dqm
                0x00102994        0x4 /home/sun/t1/MT92_S1_T1_estar_WCDMA_JB9_Ldata_20140711/mediatek/preloader/out/dramc_calib.o
                0x00102994                opt_tx_dqm
 .bss.DQS_PRINT
                0x00102998        0x4 /home/sun/t1/MT92_S1_T1_estar_WCDMA_JB9_Ldata_20140711/mediatek/preloader/out/dramc_calib.o
                0x00102998                DQS_PRINT
 .bss.opt_rx_dqs0
                0x0010299c        0x4 /home/sun/t1/MT92_S1_T1_estar_WCDMA_JB9_Ldata_20140711/mediatek/preloader/out/dramc_calib.o
                0x0010299c                opt_rx_dqs0
 .bss.opt_tx_dq
                0x001029a0       0x10 /home/sun/t1/MT92_S1_T1_estar_WCDMA_JB9_Ldata_20140711/mediatek/preloader/out/dramc_calib.o
                0x001029a0                opt_tx_dq
 .bss.opt_rx_dqs1
                0x001029b0        0x4 /home/sun/t1/MT92_S1_T1_estar_WCDMA_JB9_Ldata_20140711/mediatek/preloader/out/dramc_calib.o
                0x001029b0                opt_rx_dqs1
 .bss.RANK_CURR
                0x001029b4        0x4 /home/sun/t1/MT92_S1_T1_estar_WCDMA_JB9_Ldata_20140711/mediatek/preloader/out/dramc_calib.o
                0x001029b4                RANK_CURR
 .bss.dle_result
                0x001029b8       0x40 /home/sun/t1/MT92_S1_T1_estar_WCDMA_JB9_Ldata_20140711/mediatek/preloader/out/dramc_dle_cal.o
                0x001029b8                dle_result
 .bss.global_dle_value
                0x001029f8        0x4 /home/sun/t1/MT92_S1_T1_estar_WCDMA_JB9_Ldata_20140711/mediatek/preloader/out/dramc_dle_cal.o
 .bss.opt_gw_fine_value1
                0x001029fc        0x4 /home/sun/t1/MT92_S1_T1_estar_WCDMA_JB9_Ldata_20140711/mediatek/preloader/out/dramc_dqs_gw.o
                0x001029fc                opt_gw_fine_value1
 .bss.max_pwin  0x00102a00        0xc /home/sun/t1/MT92_S1_T1_estar_WCDMA_JB9_Ldata_20140711/mediatek/preloader/out/dramc_dqs_gw.o
 .bss.dqs_gw_fine
                0x00102a0c        0x4 /home/sun/t1/MT92_S1_T1_estar_WCDMA_JB9_Ldata_20140711/mediatek/preloader/out/dramc_dqs_gw.o
 .bss.opt_gw_coarse_value
                0x00102a10        0x4 /home/sun/t1/MT92_S1_T1_estar_WCDMA_JB9_Ldata_20140711/mediatek/preloader/out/dramc_dqs_gw.o
                0x00102a10                opt_gw_coarse_value
 .bss.opt_gw_fine_value
                0x00102a14        0x4 /home/sun/t1/MT92_S1_T1_estar_WCDMA_JB9_Ldata_20140711/mediatek/preloader/out/dramc_dqs_gw.o
                0x00102a14                opt_gw_fine_value
 .bss.high_score
                0x00102a18        0x4 /home/sun/t1/MT92_S1_T1_estar_WCDMA_JB9_Ldata_20140711/mediatek/preloader/out/dramc_dqs_gw.o
                0x00102a18                high_score
 .bss.opt_gw_coarse_value0
                0x00102a1c        0x4 /home/sun/t1/MT92_S1_T1_estar_WCDMA_JB9_Ldata_20140711/mediatek/preloader/out/dramc_dqs_gw.o
                0x00102a1c                opt_gw_coarse_value0
 .bss.score     0x00102a20        0x4 /home/sun/t1/MT92_S1_T1_estar_WCDMA_JB9_Ldata_20140711/mediatek/preloader/out/dramc_dqs_gw.o
                0x00102a20                score
 .bss.opt_gw_coarse_value1
                0x00102a24        0x4 /home/sun/t1/MT92_S1_T1_estar_WCDMA_JB9_Ldata_20140711/mediatek/preloader/out/dramc_dqs_gw.o
                0x00102a24                opt_gw_coarse_value1
 .bss.dqs_gw    0x00102a28       0x80 /home/sun/t1/MT92_S1_T1_estar_WCDMA_JB9_Ldata_20140711/mediatek/preloader/out/dramc_dqs_gw.o
 .bss.dqs_gw_coarse
                0x00102aa8        0x4 /home/sun/t1/MT92_S1_T1_estar_WCDMA_JB9_Ldata_20140711/mediatek/preloader/out/dramc_dqs_gw.o
 .bss.cur_pwin  0x00102aac        0xc /home/sun/t1/MT92_S1_T1_estar_WCDMA_JB9_Ldata_20140711/mediatek/preloader/out/dramc_dqs_gw.o
 .bss.opt_gw_fine_value0
                0x00102ab8        0x4 /home/sun/t1/MT92_S1_T1_estar_WCDMA_JB9_Ldata_20140711/mediatek/preloader/out/dramc_dqs_gw.o
                0x00102ab8                opt_gw_fine_value0
 .bss.drvn      0x00102abc        0x4 /home/sun/t1/MT92_S1_T1_estar_WCDMA_JB9_Ldata_20140711/mediatek/preloader/out/emi.o
                0x00102abc                drvn
 .bss.drvp      0x00102ac0        0x4 /home/sun/t1/MT92_S1_T1_estar_WCDMA_JB9_Ldata_20140711/mediatek/preloader/out/emi.o
                0x00102ac0                drvp
 .bss.id        0x00102ac4       0x16 /home/sun/t1/MT92_S1_T1_estar_WCDMA_JB9_Ldata_20140711/mediatek/preloader/out/emi.o
 .bss.ddr3_1333_enable
                0x00102adc        0x4 /home/sun/t1/MT92_S1_T1_estar_WCDMA_JB9_Ldata_20140711/mediatek/preloader/out/emi.o
                0x00102adc                ddr3_1333_enable
 .bss.DDR_type  0x00102ae0        0x4 /home/sun/t1/MT92_S1_T1_estar_WCDMA_JB9_Ldata_20140711/mediatek/preloader/out/emi.o
                0x00102ae0                DDR_type
 .bss.enable_combo_dis
                0x00102ae4        0x4 /home/sun/t1/MT92_S1_T1_estar_WCDMA_JB9_Ldata_20140711/mediatek/preloader/out/emi.o
 .bss.found.1437
                0x00102ae8        0x4 /home/sun/t1/MT92_S1_T1_estar_WCDMA_JB9_Ldata_20140711/mediatek/preloader/out/emi.o
 .bss.fw_id_len
                0x00102aec        0x4 /home/sun/t1/MT92_S1_T1_estar_WCDMA_JB9_Ldata_20140711/mediatek/preloader/out/emi.o
 .bss.g_meta_ready_start_time
                0x00102af0        0x4 /home/sun/t1/MT92_S1_T1_estar_WCDMA_JB9_Ldata_20140711/mediatek/preloader/out/handshake_uart.o
 .bss.i2c_port  0x00102af4       0x70 /home/sun/t1/MT92_S1_T1_estar_WCDMA_JB9_Ldata_20140711/mediatek/preloader/out/i2c.o
                0x00102af4                i2c_port
 .bss.I2C_TIMING_REG_BACKUP
                0x00102b64       0x1c /home/sun/t1/MT92_S1_T1_estar_WCDMA_JB9_Ldata_20140711/mediatek/preloader/out/i2c.o
                0x00102b64                I2C_TIMING_REG_BACKUP
 .bss.mode.1650
                0x00102b80        0x4 /home/sun/t1/MT92_S1_T1_estar_WCDMA_JB9_Ldata_20140711/mediatek/preloader/out/i2c.o
 .bss.khz.1651  0x00102b84        0x4 /home/sun/t1/MT92_S1_T1_estar_WCDMA_JB9_Ldata_20140711/mediatek/preloader/out/i2c.o
 .bss.g_addr_trans_tbl
                0x00102b88        0x8 /home/sun/t1/MT92_S1_T1_estar_WCDMA_JB9_Ldata_20140711/mediatek/preloader/out/mmc_common_inter.o
 .bss.g_emmc_user_size
                0x00102b90        0x8 /home/sun/t1/MT92_S1_T1_estar_WCDMA_JB9_Ldata_20140711/mediatek/preloader/out/mmc_common_inter.o
                0x00102b90                g_emmc_user_size
 .bss.g_emmc_size
                0x00102b98        0x8 /home/sun/t1/MT92_S1_T1_estar_WCDMA_JB9_Ldata_20140711/mediatek/preloader/out/mmc_common_inter.o
                0x00102b98                g_emmc_size
 .bss.g_mmc_bdev
                0x00102ba0       0x28 /home/sun/t1/MT92_S1_T1_estar_WCDMA_JB9_Ldata_20140711/mediatek/preloader/out/mmc_common_inter.o
 .bss.g_emmc_addr_trans
                0x00102bc8       0x90 /home/sun/t1/MT92_S1_T1_estar_WCDMA_JB9_Ldata_20140711/mediatek/preloader/out/mmc_common_inter.o
 .bss.sd_card   0x00102c58      0x5b0 /home/sun/t1/MT92_S1_T1_estar_WCDMA_JB9_Ldata_20140711/mediatek/preloader/out/mmc_core.o
 .bss.sd_host   0x00103208       0xc0 /home/sun/t1/MT92_S1_T1_estar_WCDMA_JB9_Ldata_20140711/mediatek/preloader/out/mmc_core.o
 .bss.msdc_priv
                0x001032c8       0xe0 /home/sun/t1/MT92_S1_T1_estar_WCDMA_JB9_Ldata_20140711/mediatek/preloader/out/msdc.o
 .bss.tempart   0x001033a8       0x20 /home/sun/t1/MT92_S1_T1_estar_WCDMA_JB9_Ldata_20140711/mediatek/preloader/out/partition.o
 .bss.g_boot_mode
                0x001033c8        0x4 /home/sun/t1/MT92_S1_T1_estar_WCDMA_JB9_Ldata_20140711/mediatek/preloader/out/platform.o
                0x001033c8                g_boot_mode
 .bss.g_boot_time
                0x001033cc        0x4 /home/sun/t1/MT92_S1_T1_estar_WCDMA_JB9_Ldata_20140711/mediatek/preloader/out/platform.o
                0x001033cc                g_boot_time
 .bss.kpoc_flag
                0x001033d0        0x4 /home/sun/t1/MT92_S1_T1_estar_WCDMA_JB9_Ldata_20140711/mediatek/preloader/out/platform.o
                0x001033d0                kpoc_flag
 .bss.uart_mode
                0x001033d4        0x4 /home/sun/t1/MT92_S1_T1_estar_WCDMA_JB9_Ldata_20140711/mediatek/preloader/out/platform.o
                0x001033d4                uart_mode
 .bss.g_boot_reason
                0x001033d8        0x4 /home/sun/t1/MT92_S1_T1_estar_WCDMA_JB9_Ldata_20140711/mediatek/preloader/out/platform.o
                0x001033d8                g_boot_reason
 .bss.g_ddr_reserve_enable
                0x001033dc        0x4 /home/sun/t1/MT92_S1_T1_estar_WCDMA_JB9_Ldata_20140711/mediatek/preloader/out/platform.o
                0x001033dc                g_ddr_reserve_enable
 .bss.g_ddr_reserve_success
                0x001033e0        0x4 /home/sun/t1/MT92_S1_T1_estar_WCDMA_JB9_Ldata_20140711/mediatek/preloader/out/platform.o
                0x001033e0                g_ddr_reserve_success
 .bss.g_meta_com_type
                0x001033e4        0x4 /home/sun/t1/MT92_S1_T1_estar_WCDMA_JB9_Ldata_20140711/mediatek/preloader/out/platform.o
                0x001033e4                g_meta_com_type
 .bss.sys_stack
                0x001033e8      0xc00 /home/sun/t1/MT92_S1_T1_estar_WCDMA_JB9_Ldata_20140711/mediatek/preloader/out/platform.o
                0x001033e8                sys_stack
 .bss.g_meta_com_id
                0x00103fe8        0x4 /home/sun/t1/MT92_S1_T1_estar_WCDMA_JB9_Ldata_20140711/mediatek/preloader/out/platform.o
                0x00103fe8                g_meta_com_id
 .bss.mt6333_i2c
                0x00103fec       0x48 /home/sun/t1/MT92_S1_T1_estar_WCDMA_JB9_Ldata_20140711/mediatek/preloader/out/pmic_6333.o
 .bss.g_charger_in_flag
                0x00104034        0x4 /home/sun/t1/MT92_S1_T1_estar_WCDMA_JB9_Ldata_20140711/mediatek/preloader/out/pmic.o
                0x00104034                g_charger_in_flag
 .bss.g_ret     0x00104038        0x4 /home/sun/t1/MT92_S1_T1_estar_WCDMA_JB9_Ldata_20140711/mediatek/preloader/out/pmic.o
                0x00104038                g_ret
 .bss.g_first_check
                0x0010403c        0x4 /home/sun/t1/MT92_S1_T1_estar_WCDMA_JB9_Ldata_20140711/mediatek/preloader/out/pmic.o
                0x0010403c                g_first_check
 .bss.log_end   0x00104040        0x4 /home/sun/t1/MT92_S1_T1_estar_WCDMA_JB9_Ldata_20140711/mediatek/preloader/out/print.o
                0x00104040                log_end
 .bss.log_sram_buf
                0x00104044     0x5000 /home/sun/t1/MT92_S1_T1_estar_WCDMA_JB9_Ldata_20140711/mediatek/preloader/out/print.o
 .bss.log_hdr   0x00109044        0x4 /home/sun/t1/MT92_S1_T1_estar_WCDMA_JB9_Ldata_20140711/mediatek/preloader/out/print.o
                0x00109044                log_hdr
 .bss.log_ptr   0x00109048        0x4 /home/sun/t1/MT92_S1_T1_estar_WCDMA_JB9_Ldata_20140711/mediatek/preloader/out/print.o
                0x00109048                log_ptr
 .bss.g_log_miss_chrs
                0x0010904c        0x4 /home/sun/t1/MT92_S1_T1_estar_WCDMA_JB9_Ldata_20140711/mediatek/preloader/out/print.o
 .bss.g_log_disable
                0x00109050        0x4 /home/sun/t1/MT92_S1_T1_estar_WCDMA_JB9_Ldata_20140711/mediatek/preloader/out/print.o
 .bss.g_rtc_2sec_stat
                0x00109054        0x1 /home/sun/t1/MT92_S1_T1_estar_WCDMA_JB9_Ldata_20140711/mediatek/preloader/out/rtc.o
 .bss.recovery_flag
                0x00109055        0x1 /home/sun/t1/MT92_S1_T1_estar_WCDMA_JB9_Ldata_20140711/mediatek/preloader/out/rtc.o
 .bss.save_stat.1561
                0x00109056        0x1 /home/sun/t1/MT92_S1_T1_estar_WCDMA_JB9_Ldata_20140711/mediatek/preloader/out/rtc.o
 .bss.g_SBC_PUBK
                0x00109058      0x200 /home/sun/t1/MT92_S1_T1_estar_WCDMA_JB9_Ldata_20140711/mediatek/preloader/out/sec_key.o
                0x00109058                g_SBC_PUBK
 .bss.sec_cfg_info
                0x00109258        0xc /home/sun/t1/MT92_S1_T1_estar_WCDMA_JB9_Ldata_20140711/mediatek/preloader/out/sec.o
                0x00109258                sec_cfg_info
 .bss.secroimg  0x00109264        0x4 /home/sun/t1/MT92_S1_T1_estar_WCDMA_JB9_Ldata_20140711/mediatek/preloader/out/sec_secroimg.o
                0x00109264                secroimg
 .bss.bDumpPartInfo
                0x00109268        0x1 /home/sun/t1/MT92_S1_T1_estar_WCDMA_JB9_Ldata_20140711/mediatek/preloader/out/sec_util.o
                0x00109268                bDumpPartInfo
 .bss.bUsbHandshakeSuccess
                0x00109269        0x1 /home/sun/t1/MT92_S1_T1_estar_WCDMA_JB9_Ldata_20140711/mediatek/preloader/out/sec_util.o
 .bss.timestamp
                0x0010926c        0x4 /home/sun/t1/MT92_S1_T1_estar_WCDMA_JB9_Ldata_20140711/mediatek/preloader/out/timer.o
 .bss.lastinc   0x00109270        0x4 /home/sun/t1/MT92_S1_T1_estar_WCDMA_JB9_Ldata_20140711/mediatek/preloader/out/timer.o
 .bss.set_address
                0x00109274        0x4 /home/sun/t1/MT92_S1_T1_estar_WCDMA_JB9_Ldata_20140711/mediatek/preloader/out/usbd.o
                0x00109274                set_address
 .bss.ep0_urb   0x00109278        0x4 /home/sun/t1/MT92_S1_T1_estar_WCDMA_JB9_Ldata_20140711/mediatek/preloader/out/usbd.o
 .bss.g_usb_port_state
                0x0010927c        0x4 /home/sun/t1/MT92_S1_T1_estar_WCDMA_JB9_Ldata_20140711/mediatek/preloader/out/usbd.o
                0x0010927c                g_usb_port_state
 .bss.udc_device
                0x00109280        0x4 /home/sun/t1/MT92_S1_T1_estar_WCDMA_JB9_Ldata_20140711/mediatek/preloader/out/usbd.o
 .bss.ep0_state
                0x00109284        0x4 /home/sun/t1/MT92_S1_T1_estar_WCDMA_JB9_Ldata_20140711/mediatek/preloader/out/usbd.o
                0x00109284                ep0_state
 .bss.g_usbphy_ok
                0x00109288        0x4 /home/sun/t1/MT92_S1_T1_estar_WCDMA_JB9_Ldata_20140711/mediatek/preloader/out/usbd.o
                0x00109288                g_usbphy_ok
 .bss.mt6573_rx_urb
                0x0010928c      0x41c /home/sun/t1/MT92_S1_T1_estar_WCDMA_JB9_Ldata_20140711/mediatek/preloader/out/usbtty.o
                0x0010928c                mt6573_rx_urb
 .bss.mt_usb_config
                0x001096a8        0xc /home/sun/t1/MT92_S1_T1_estar_WCDMA_JB9_Ldata_20140711/mediatek/preloader/out/usbtty.o
 .bss.mt6573_ep0_urb
                0x001096b4      0x41c /home/sun/t1/MT92_S1_T1_estar_WCDMA_JB9_Ldata_20140711/mediatek/preloader/out/usbtty.o
                0x001096b4                mt6573_ep0_urb
 .bss.mt_usb_comm_alternate_interface
                0x00109ad0       0x1c /home/sun/t1/MT92_S1_T1_estar_WCDMA_JB9_Ldata_20140711/mediatek/preloader/out/usbtty.o
 .bss.mt_usb_ep
                0x00109aec       0x70 /home/sun/t1/MT92_S1_T1_estar_WCDMA_JB9_Ldata_20140711/mediatek/preloader/out/usbtty.o
 .bss.usb_configured
                0x00109b5c        0x4 /home/sun/t1/MT92_S1_T1_estar_WCDMA_JB9_Ldata_20140711/mediatek/preloader/out/usbtty.o
                0x00109b5c                usb_configured
 .bss.usb_string_table
                0x00109b60        0x4 /home/sun/t1/MT92_S1_T1_estar_WCDMA_JB9_Ldata_20140711/mediatek/preloader/out/usbtty.o
                0x00109b60                usb_string_table
 .bss.usb_output_buffer
                0x00109b64       0x18 /home/sun/t1/MT92_S1_T1_estar_WCDMA_JB9_Ldata_20140711/mediatek/preloader/out/usbtty.o
 .bss.commInterface
                0x00109b7c       0x40 /home/sun/t1/MT92_S1_T1_estar_WCDMA_JB9_Ldata_20140711/mediatek/preloader/out/usbtty.o
 .bss.dataInterface
                0x00109bbc       0x2e /home/sun/t1/MT92_S1_T1_estar_WCDMA_JB9_Ldata_20140711/mediatek/preloader/out/usbtty.o
 .bss.mt_usb_comm_interface
                0x00109bec        0x8 /home/sun/t1/MT92_S1_T1_estar_WCDMA_JB9_Ldata_20140711/mediatek/preloader/out/usbtty.o
 .bss.mt6573_tx_urb
                0x00109bf4      0x41c /home/sun/t1/MT92_S1_T1_estar_WCDMA_JB9_Ldata_20140711/mediatek/preloader/out/usbtty.o
                0x00109bf4                mt6573_tx_urb
 .bss.usb_input_buffer
                0x0010a010       0x18 /home/sun/t1/MT92_S1_T1_estar_WCDMA_JB9_Ldata_20140711/mediatek/preloader/out/usbtty.o
 .bss.mt_usb_device
                0x0010a028       0x28 /home/sun/t1/MT92_S1_T1_estar_WCDMA_JB9_Ldata_20140711/mediatek/preloader/out/usbtty.o
 .bss.mt_usb_data_alternate_interface
                0x0010a050       0x1c /home/sun/t1/MT92_S1_T1_estar_WCDMA_JB9_Ldata_20140711/mediatek/preloader/out/usbtty.o
 .bss.configuration
                0x0010a06c       0x34 /home/sun/t1/MT92_S1_T1_estar_WCDMA_JB9_Ldata_20140711/mediatek/preloader/out/usbtty.o
 .bss.product   0x0010a0a0       0x22 /home/sun/t1/MT92_S1_T1_estar_WCDMA_JB9_Ldata_20140711/mediatek/preloader/out/usbtty.o
 .bss.manufacturer
                0x0010a0c2       0x12 /home/sun/t1/MT92_S1_T1_estar_WCDMA_JB9_Ldata_20140711/mediatek/preloader/out/usbtty.o
 .bss.tool_exists
                0x0010a0d4        0x4 /home/sun/t1/MT92_S1_T1_estar_WCDMA_JB9_Ldata_20140711/mediatek/preloader/out/usbtty.o
                0x0010a0d4                tool_exists
 .bss.mt_usb_interface
                0x0010a0d8        0x8 /home/sun/t1/MT92_S1_T1_estar_WCDMA_JB9_Ldata_20140711/mediatek/preloader/out/usbtty.o
 .bss.mt_usb_data_interface
                0x0010a0e0        0x8 /home/sun/t1/MT92_S1_T1_estar_WCDMA_JB9_Ldata_20140711/mediatek/preloader/out/usbtty.o
 .bss.status.1301
                0x0010a0e8        0x4 /home/sun/t1/MT92_S1_T1_estar_WCDMA_JB9_Ldata_20140711/mediatek/preloader/out/wdt.o
 .bss.g_rgu_status
                0x0010a0ec        0x4 /home/sun/t1/MT92_S1_T1_estar_WCDMA_JB9_Ldata_20140711/mediatek/preloader/out/wdt.o
                0x0010a0ec                g_rgu_status
 .bss.reboot_from
                0x0010a0f0        0x4 /home/sun/t1/MT92_S1_T1_estar_WCDMA_JB9_Ldata_20140711/mediatek/preloader/out/wdt.o
 .bss.rgu_mode  0x0010a0f4        0x4 /home/sun/t1/MT92_S1_T1_estar_WCDMA_JB9_Ldata_20140711/mediatek/preloader/out/wdt.o
 .bss.timeout   0x0010a0f8        0x4 /home/sun/t1/MT92_S1_T1_estar_WCDMA_JB9_Ldata_20140711/mediatek/preloader/out/wdt.o
 .bss.g_sha1_time
                0x0010a0fc        0x4 /home/sun/t1/MT92_S1_T1_estar_WCDMA_JB9_Ldata_20140711/mediatek/platform/mt6592/preloader/src/SecLib.a(seclib_img_hash.o)
                0x0010a0fc                g_sha1_time
 .bss.img_buf   0x0010a100        0x4 /home/sun/t1/MT92_S1_T1_estar_WCDMA_JB9_Ldata_20140711/mediatek/platform/mt6592/preloader/src/SecLib.a(seclib_img_verify.o)
 .bss.chunk_buf
                0x0010a104        0x4 /home/sun/t1/MT92_S1_T1_estar_WCDMA_JB9_Ldata_20140711/mediatek/platform/mt6592/preloader/src/SecLib.a(seclib_img_verify.o)
 .bss.img_buf_current_allocated
                0x0010a108        0x4 /home/sun/t1/MT92_S1_T1_estar_WCDMA_JB9_Ldata_20140711/mediatek/platform/mt6592/preloader/src/SecLib.a(seclib_img_verify.o)
 .bss.g_cust    0x0010a10c        0x4 /home/sun/t1/MT92_S1_T1_estar_WCDMA_JB9_Ldata_20140711/mediatek/platform/mt6592/preloader/src/SecLib.a(seclib.o)
                0x0010a10c                g_cust
 .bss.g_sec_cfg
                0x0010a110        0x4 /home/sun/t1/MT92_S1_T1_estar_WCDMA_JB9_Ldata_20140711/mediatek/platform/mt6592/preloader/src/SecLib.a(seclib.o)
                0x0010a110                g_sec_cfg
 .bss.g_cust_name
                0x0010a114       0x20 /home/sun/t1/MT92_S1_T1_estar_WCDMA_JB9_Ldata_20140711/mediatek/platform/mt6592/preloader/src/SecLib.a(seclib.o)
                0x0010a114                g_cust_name
 .bss.rsa       0x0010a134       0x5c /home/sun/t1/MT92_S1_T1_estar_WCDMA_JB9_Ldata_20140711/mediatek/platform/mt6592/preloader/src/security/auth/DaVerifyLib.a(rsa.o)
                0x0010a134                rsa
 .bss.sha1sum   0x0010a190       0x14 /home/sun/t1/MT92_S1_T1_estar_WCDMA_JB9_Ldata_20140711/mediatek/platform/mt6592/preloader/src/security/auth/DaVerifyLib.a(sha1.o)
                0x0010a190                sha1sum
 .bss.heap_start_addr
                0x0010a1a4        0x4 /home/sun/t1/MT92_S1_T1_estar_WCDMA_JB9_Ldata_20140711/mediatek/platform/mt6592/preloader/src/security/auth/DaVerifyLib.a(stdlib.o)
                0x0010a1a4                heap_start_addr
 .bss.heap_max_size
                0x0010a1a8        0x4 /home/sun/t1/MT92_S1_T1_estar_WCDMA_JB9_Ldata_20140711/mediatek/platform/mt6592/preloader/src/security/auth/DaVerifyLib.a(stdlib.o)
                0x0010a1a8                heap_max_size
 .bss.heap_current_alloc
                0x0010a1ac        0x4 /home/sun/t1/MT92_S1_T1_estar_WCDMA_JB9_Ldata_20140711/mediatek/platform/mt6592/preloader/src/security/auth/DaVerifyLib.a(stdlib.o)
                0x0010a1ac                heap_current_alloc
 .bss.sej_ctx   0x0010a1b0       0x54 /home/sun/t1/MT92_S1_T1_estar_WCDMA_JB9_Ldata_20140711/mediatek/platform/mt6592/preloader/src/SecPlat.a(sej_sk.o)

.start          0x00201000      0x1d8
 .text.start    0xffffffffffffffff      0x1d0 /home/sun/t1/MT92_S1_T1_estar_WCDMA_JB9_Ldata_20140711/mediatek/preloader/out/init.o
                0x00201000                _start
                0x002010c8                jump
                0x002010d4                apmcu_icache_invalidate
                0x002010e0                apmcu_dcache_clean_invalidate
                0x0020117c                apmcu_dsb
                0x00201184                apmcu_isb
                0x0020118c                apmcu_disable_dcache
                0x0020119c                apmcu_disable_icache
                0x002011b4                apmcu_disable_smp

.rom_info       0x002011fc      0x3c0
 .data.rom_info
                0x002011fc      0x3c0 /home/sun/t1/MT92_S1_T1_estar_WCDMA_JB9_Ldata_20140711/mediatek/preloader/out/sec_rom_info.o
                0x002011fc                g_ROM_INFO

.text           0x002015c0    0x16a28
 .text          0x002015c0      0x140 /home/sun/t1/MT92_S1_T1_estar_WCDMA_JB9_Ldata_20140711/mediatek/preloader/out/eabi_idiv.o
                0x002015c0                __divsi3
                0x002015c0                __aeabi_idiv
 .text          0x00201700       0xc8 /home/sun/t1/MT92_S1_T1_estar_WCDMA_JB9_Ldata_20140711/mediatek/preloader/out/eabi.o
                0x00201700                __udivsi3
                0x00201700                __aeabi_uidiv
                0x00201798                __aeabi_uidivmod
                0x002017b0                __aeabi_idivmod
 .text          0x002017c8      0x14c /home/sun/t1/MT92_S1_T1_estar_WCDMA_JB9_Ldata_20140711/mediatek/preloader/out/eabi_uldivmod.o
                0x002017c8                __aeabi_uldivmod
 .text.blkdev_register
                0x00201914       0x28 /home/sun/t1/MT92_S1_T1_estar_WCDMA_JB9_Ldata_20140711/mediatek/preloader/out/blkdev.o
                0x00201915                blkdev_register
 .text.blkdev_get
                0x0020193c       0x20 /home/sun/t1/MT92_S1_T1_estar_WCDMA_JB9_Ldata_20140711/mediatek/preloader/out/blkdev.o
                0x0020193d                blkdev_get
 .text.blkdev_read
                0x0020195c      0x1f0 /home/sun/t1/MT92_S1_T1_estar_WCDMA_JB9_Ldata_20140711/mediatek/preloader/out/blkdev.o
                0x0020195d                blkdev_read
 .text.blkdev_write
                0x00201b4c      0x220 /home/sun/t1/MT92_S1_T1_estar_WCDMA_JB9_Ldata_20140711/mediatek/preloader/out/blkdev.o
                0x00201b4d                blkdev_write
 .text.buf_input_init
                0x00201d6c       0x4c /home/sun/t1/MT92_S1_T1_estar_WCDMA_JB9_Ldata_20140711/mediatek/preloader/out/circbuf.o
                0x00201d6d                buf_input_init
 .text.buf_output_init
                0x00201db8       0x4c /home/sun/t1/MT92_S1_T1_estar_WCDMA_JB9_Ldata_20140711/mediatek/preloader/out/circbuf.o
                0x00201db9                buf_output_init
 .text.buf_pop  0x00201e04       0x34 /home/sun/t1/MT92_S1_T1_estar_WCDMA_JB9_Ldata_20140711/mediatek/preloader/out/circbuf.o
                0x00201e05                buf_pop
 .text.buf_push
                0x00201e38       0x2a /home/sun/t1/MT92_S1_T1_estar_WCDMA_JB9_Ldata_20140711/mediatek/preloader/out/circbuf.o
                0x00201e39                buf_push
 .text.cust_part_init
                0x00201e62        0x2 /home/sun/t1/MT92_S1_T1_estar_WCDMA_JB9_Ldata_20140711/mediatek/preloader/out/cust_part.o
                0x00201e63                cust_part_init
 .text.cust_part_tbl
                0x00201e64        0xc /home/sun/t1/MT92_S1_T1_estar_WCDMA_JB9_Ldata_20140711/mediatek/preloader/out/cust_part.o
                0x00201e65                cust_part_tbl
 .text.uffs.part.0
                0x00201e70       0x2e /home/sun/t1/MT92_S1_T1_estar_WCDMA_JB9_Ldata_20140711/mediatek/preloader/out/device_apc.o
 .text.device_APC_dom_setup
                0x00201ea0       0xb8 /home/sun/t1/MT92_S1_T1_estar_WCDMA_JB9_Ldata_20140711/mediatek/preloader/out/device_apc.o
                0x00201ea1                device_APC_dom_setup
 .text.__div0   0x00201f58       0x18 /home/sun/t1/MT92_S1_T1_estar_WCDMA_JB9_Ldata_20140711/mediatek/preloader/out/div0.o
                0x00201f59                __div0
 .text.usbdl_put_word
                0x00201f70       0x24 /home/sun/t1/MT92_S1_T1_estar_WCDMA_JB9_Ldata_20140711/mediatek/preloader/out/download.o
 .text.usbdl_put_dword
                0x00201f94       0x30 /home/sun/t1/MT92_S1_T1_estar_WCDMA_JB9_Ldata_20140711/mediatek/preloader/out/download.o
 .text.usbdl_get_word
                0x00201fc4       0x2c /home/sun/t1/MT92_S1_T1_estar_WCDMA_JB9_Ldata_20140711/mediatek/preloader/out/download.o
 .text.usbdl_get_dword
                0x00201ff0       0x38 /home/sun/t1/MT92_S1_T1_estar_WCDMA_JB9_Ldata_20140711/mediatek/preloader/out/download.o
 .text.usbdl_read16
                0x00202028       0x74 /home/sun/t1/MT92_S1_T1_estar_WCDMA_JB9_Ldata_20140711/mediatek/preloader/out/download.o
 .text.usbdl_write16
                0x0020209c       0x8a /home/sun/t1/MT92_S1_T1_estar_WCDMA_JB9_Ldata_20140711/mediatek/preloader/out/download.o
 .text.usbdl_handler
                0x00202128      0x54c /home/sun/t1/MT92_S1_T1_estar_WCDMA_JB9_Ldata_20140711/mediatek/preloader/out/download.o
                0x00202129                usbdl_handler
 .text.init_dram_buffer
                0x00202674       0x78 /home/sun/t1/MT92_S1_T1_estar_WCDMA_JB9_Ldata_20140711/mediatek/preloader/out/dram_buffer.o
                0x00202675                init_dram_buffer
 .text.calib_cmd_addr_output_dly_factor_handler
                0x002026ec      0x100 /home/sun/t1/MT92_S1_T1_estar_WCDMA_JB9_Ldata_20140711/mediatek/preloader/out/dramc_calib.o
 .text.do_sw_rx_dq_dqs_calib
                0x002027ec      0x5c4 /home/sun/t1/MT92_S1_T1_estar_WCDMA_JB9_Ldata_20140711/mediatek/preloader/out/dramc_calib.o
                0x002027ed                do_sw_rx_dq_dqs_calib
 .text.do_sw_tx_dq_dqs_calib
                0x00202db0      0x740 /home/sun/t1/MT92_S1_T1_estar_WCDMA_JB9_Ldata_20140711/mediatek/preloader/out/dramc_calib.o
                0x00202db1                do_sw_tx_dq_dqs_calib
 .text.dramc_calib
                0x002034f0      0x254 /home/sun/t1/MT92_S1_T1_estar_WCDMA_JB9_Ldata_20140711/mediatek/preloader/out/dramc_calib.o
                0x002034f1                dramc_calib
 .text.dramc_dma_test
                0x00203744       0x74 /home/sun/t1/MT92_S1_T1_estar_WCDMA_JB9_Ldata_20140711/mediatek/preloader/out/dramc_dle_cal.o
                0x00203745                dramc_dma_test
 .text.ett_print_dle_before_each_round_of_loop_zero
                0x002037b8        0x2 /home/sun/t1/MT92_S1_T1_estar_WCDMA_JB9_Ldata_20140711/mediatek/preloader/out/dramc_dle_cal.o
                0x002037b9                ett_print_dle_before_each_round_of_loop_zero
 .text.ett_print_dle_after_each_round_of_loop_zero
                0x002037ba       0x10 /home/sun/t1/MT92_S1_T1_estar_WCDMA_JB9_Ldata_20140711/mediatek/preloader/out/dramc_dle_cal.o
                0x002037bb                ett_print_dle_after_each_round_of_loop_zero
 .text.ett_calc_dle_opt_value
                0x002037ca        0x2 /home/sun/t1/MT92_S1_T1_estar_WCDMA_JB9_Ldata_20140711/mediatek/preloader/out/dramc_dle_cal.o
                0x002037cb                ett_calc_dle_opt_value
 .text.ett_print_dle_after_finish_loop_n
                0x002037cc       0x10 /home/sun/t1/MT92_S1_T1_estar_WCDMA_JB9_Ldata_20140711/mediatek/preloader/out/dramc_dle_cal.o
                0x002037cd                ett_print_dle_after_finish_loop_n
 .text.ett_print_dle_before_start_loop_zero
                0x002037dc       0x24 /home/sun/t1/MT92_S1_T1_estar_WCDMA_JB9_Ldata_20140711/mediatek/preloader/out/dramc_dle_cal.o
                0x002037dd                ett_print_dle_before_start_loop_zero
 .text.dle_factor_handler
                0x00203800       0xa0 /home/sun/t1/MT92_S1_T1_estar_WCDMA_JB9_Ldata_20140711/mediatek/preloader/out/dramc_dle_cal.o
                0x00203801                dle_factor_handler
 .text.ett_print_dle_result
                0x002038a0       0x6c /home/sun/t1/MT92_S1_T1_estar_WCDMA_JB9_Ldata_20140711/mediatek/preloader/out/dramc_dle_cal.o
                0x002038a1                ett_print_dle_result
 .text.ett_print_dle_banner
                0x0020390c       0x60 /home/sun/t1/MT92_S1_T1_estar_WCDMA_JB9_Ldata_20140711/mediatek/preloader/out/dramc_dle_cal.o
                0x0020390d                ett_print_dle_banner
 .text.do_dle_calib
                0x0020396c       0xbc /home/sun/t1/MT92_S1_T1_estar_WCDMA_JB9_Ldata_20140711/mediatek/preloader/out/dramc_dle_cal.o
                0x0020396d                do_dle_calib
 .text.ett_print_dqs_gw_before_each_round_of_loop_zero
                0x00203a28       0x44 /home/sun/t1/MT92_S1_T1_estar_WCDMA_JB9_Ldata_20140711/mediatek/preloader/out/dramc_dqs_gw.o
                0x00203a29                ett_print_dqs_gw_before_each_round_of_loop_zero
 .text.ett_print_dqs_gw_after_each_round_of_loop_zero
                0x00203a6c        0x2 /home/sun/t1/MT92_S1_T1_estar_WCDMA_JB9_Ldata_20140711/mediatek/preloader/out/dramc_dqs_gw.o
                0x00203a6d                ett_print_dqs_gw_after_each_round_of_loop_zero
 .text.ett_calc_dqs_gw_opt_value
                0x00203a6e        0x2 /home/sun/t1/MT92_S1_T1_estar_WCDMA_JB9_Ldata_20140711/mediatek/preloader/out/dramc_dqs_gw.o
                0x00203a6f                ett_calc_dqs_gw_opt_value
 .text.dqsi_gw_dly_fine_factor_handler
                0x00203a70       0x80 /home/sun/t1/MT92_S1_T1_estar_WCDMA_JB9_Ldata_20140711/mediatek/preloader/out/dramc_dqs_gw.o
                0x00203a71                dqsi_gw_dly_fine_factor_handler
 .text.dqsi_gw_dly_coarse_factor_handler
                0x00203af0       0xa4 /home/sun/t1/MT92_S1_T1_estar_WCDMA_JB9_Ldata_20140711/mediatek/preloader/out/dramc_dqs_gw.o
                0x00203af1                dqsi_gw_dly_coarse_factor_handler
 .text.dqs_print
                0x00203b94       0x24 /home/sun/t1/MT92_S1_T1_estar_WCDMA_JB9_Ldata_20140711/mediatek/preloader/out/dramc_dqs_gw.o
                0x00203b95                dqs_print
 .text.ett_print_dqs_gw_fine_after_finish_loop_zero
                0x00203bb8       0x10 /home/sun/t1/MT92_S1_T1_estar_WCDMA_JB9_Ldata_20140711/mediatek/preloader/out/dramc_dqs_gw.o
                0x00203bb9                ett_print_dqs_gw_fine_after_finish_loop_zero
 .text.ett_print_dqs_gw_before_start_loop_zero
                0x00203bc8       0x24 /home/sun/t1/MT92_S1_T1_estar_WCDMA_JB9_Ldata_20140711/mediatek/preloader/out/dramc_dqs_gw.o
                0x00203bc9                ett_print_dqs_gw_before_start_loop_zero
 .text.ett_print_dqs_gw_banner
                0x00203bec       0x60 /home/sun/t1/MT92_S1_T1_estar_WCDMA_JB9_Ldata_20140711/mediatek/preloader/out/dramc_dqs_gw.o
                0x00203bed                ett_print_dqs_gw_banner
 .text.ett_print_dqs_gw_result_1
                0x00203c4c       0xac /home/sun/t1/MT92_S1_T1_estar_WCDMA_JB9_Ldata_20140711/mediatek/preloader/out/dramc_dqs_gw.o
 .text.ett_recursive_factor_tuning
                0x00203cf8       0x94 /home/sun/t1/MT92_S1_T1_estar_WCDMA_JB9_Ldata_20140711/mediatek/preloader/out/dramc_dqs_gw.o
                0x00203cf9                ett_recursive_factor_tuning
 .text.dqsi_gw_dly_coarse_factor_handler_rank1
                0x00203d8c       0x5c /home/sun/t1/MT92_S1_T1_estar_WCDMA_JB9_Ldata_20140711/mediatek/preloader/out/dramc_dqs_gw.o
                0x00203d8d                dqsi_gw_dly_coarse_factor_handler_rank1
 .text.dqsi_gw_dly_fine_factor_handler_rank1
                0x00203de8       0x80 /home/sun/t1/MT92_S1_T1_estar_WCDMA_JB9_Ldata_20140711/mediatek/preloader/out/dramc_dqs_gw.o
                0x00203de9                dqsi_gw_dly_fine_factor_handler_rank1
 .text.Sequence_Read
                0x00203e68      0x190 /home/sun/t1/MT92_S1_T1_estar_WCDMA_JB9_Ldata_20140711/mediatek/preloader/out/dramc_dqs_gw.o
                0x00203e69                Sequence_Read
 .text.Do_Read_Test_DDR3
                0x00203ff8       0x7c /home/sun/t1/MT92_S1_T1_estar_WCDMA_JB9_Ldata_20140711/mediatek/preloader/out/dramc_dqs_gw.o
                0x00203ff9                Do_Read_Test_DDR3
 .text.Do_Read_Test_DDR2
                0x00204074       0x64 /home/sun/t1/MT92_S1_T1_estar_WCDMA_JB9_Ldata_20140711/mediatek/preloader/out/dramc_dqs_gw.o
                0x00204075                Do_Read_Test_DDR2
 .text.cpu_read_test
                0x002040d8      0x19c /home/sun/t1/MT92_S1_T1_estar_WCDMA_JB9_Ldata_20140711/mediatek/preloader/out/dramc_dqs_gw.o
                0x002040d9                cpu_read_test
 .text.do_dqs_gw_calib_1
                0x00204274      0x22c /home/sun/t1/MT92_S1_T1_estar_WCDMA_JB9_Ldata_20140711/mediatek/preloader/out/dramc_dqs_gw.o
                0x00204275                do_dqs_gw_calib_1
 .text.init_lpddr2
                0x002044a0      0x768 /home/sun/t1/MT92_S1_T1_estar_WCDMA_JB9_Ldata_20140711/mediatek/preloader/out/emi.o
 .text.mt_get_dram_type_for_dis
                0x00204c08       0x14 /home/sun/t1/MT92_S1_T1_estar_WCDMA_JB9_Ldata_20140711/mediatek/preloader/out/emi.o
 .text.DRAM_MRR
                0x00204c1c      0x208 /home/sun/t1/MT92_S1_T1_estar_WCDMA_JB9_Ldata_20140711/mediatek/preloader/out/emi.o
                0x00204c1d                DRAM_MRR
 .text.mt_get_mdl_number
                0x00204e24      0x2c8 /home/sun/t1/MT92_S1_T1_estar_WCDMA_JB9_Ldata_20140711/mediatek/preloader/out/emi.o
 .text.mt_get_dram_type
                0x002050ec       0x50 /home/sun/t1/MT92_S1_T1_estar_WCDMA_JB9_Ldata_20140711/mediatek/preloader/out/emi.o
                0x002050ed                mt_get_dram_type
 .text.get_dram_rank_nr
                0x0020513c       0x44 /home/sun/t1/MT92_S1_T1_estar_WCDMA_JB9_Ldata_20140711/mediatek/preloader/out/emi.o
                0x0020513d                get_dram_rank_nr
 .text.get_dram_rank_size
                0x00205180       0x48 /home/sun/t1/MT92_S1_T1_estar_WCDMA_JB9_Ldata_20140711/mediatek/preloader/out/emi.o
                0x00205181                get_dram_rank_size
 .text.DFS_ability_detection
                0x002051c8       0x7c /home/sun/t1/MT92_S1_T1_estar_WCDMA_JB9_Ldata_20140711/mediatek/preloader/out/emi.o
                0x002051c9                DFS_ability_detection
 .text.DRAM_Vcore_adjust
                0x00205244       0x9e /home/sun/t1/MT92_S1_T1_estar_WCDMA_JB9_Ldata_20140711/mediatek/preloader/out/emi.o
                0x00205245                DRAM_Vcore_adjust
 .text.DRAM_Vmem_adjust
                0x002052e2       0x8c /home/sun/t1/MT92_S1_T1_estar_WCDMA_JB9_Ldata_20140711/mediatek/preloader/out/emi.o
                0x002052e3                DRAM_Vmem_adjust
 .text.check_ddr_reserve_status
                0x0020536e        0x2 /home/sun/t1/MT92_S1_T1_estar_WCDMA_JB9_Ldata_20140711/mediatek/preloader/out/emi.o
                0x0020536f                check_ddr_reserve_status
 .text.ett_rextdn_sw_calibration
                0x00205370      0x1d8 /home/sun/t1/MT92_S1_T1_estar_WCDMA_JB9_Ldata_20140711/mediatek/preloader/out/emi.o
                0x00205371                ett_rextdn_sw_calibration
 .text.mt_set_emi
                0x00205548      0x2f0 /home/sun/t1/MT92_S1_T1_estar_WCDMA_JB9_Ldata_20140711/mediatek/preloader/out/emi.o
                0x00205549                mt_set_emi
 .text.mt_set_gpio_dir_chip
                0x00205838       0x50 /home/sun/t1/MT92_S1_T1_estar_WCDMA_JB9_Ldata_20140711/mediatek/preloader/out/gpio.o
                0x00205839                mt_set_gpio_dir_chip
 .text.mt_set_gpio_pull_enable_chip
                0x00205888      0x21c /home/sun/t1/MT92_S1_T1_estar_WCDMA_JB9_Ldata_20140711/mediatek/preloader/out/gpio.o
                0x00205889                mt_set_gpio_pull_enable_chip
 .text.mt_set_gpio_pull_select_chip
                0x00205aa4      0x230 /home/sun/t1/MT92_S1_T1_estar_WCDMA_JB9_Ldata_20140711/mediatek/preloader/out/gpio.o
                0x00205aa5                mt_set_gpio_pull_select_chip
 .text.mt_set_gpio_mode_chip
                0x00205cd4       0x5c /home/sun/t1/MT92_S1_T1_estar_WCDMA_JB9_Ldata_20140711/mediatek/preloader/out/gpio.o
                0x00205cd5                mt_set_gpio_mode_chip
 .text.mt_gpio_pin_decrypt
                0x00205d30        0xa /home/sun/t1/MT92_S1_T1_estar_WCDMA_JB9_Ldata_20140711/mediatek/preloader/out/gpio.o
                0x00205d31                mt_gpio_pin_decrypt
 .text.mt_set_gpio_dir
                0x00205d3a       0x1c /home/sun/t1/MT92_S1_T1_estar_WCDMA_JB9_Ldata_20140711/mediatek/preloader/out/gpio.o
                0x00205d3b                mt_set_gpio_dir
 .text.mt_set_gpio_pull_enable
                0x00205d56       0x1c /home/sun/t1/MT92_S1_T1_estar_WCDMA_JB9_Ldata_20140711/mediatek/preloader/out/gpio.o
                0x00205d57                mt_set_gpio_pull_enable
 .text.mt_set_gpio_pull_select
                0x00205d72       0x1c /home/sun/t1/MT92_S1_T1_estar_WCDMA_JB9_Ldata_20140711/mediatek/preloader/out/gpio.o
                0x00205d73                mt_set_gpio_pull_select
 .text.mt_set_gpio_mode
                0x00205d8e       0x1c /home/sun/t1/MT92_S1_T1_estar_WCDMA_JB9_Ldata_20140711/mediatek/preloader/out/gpio.o
                0x00205d8f                mt_set_gpio_mode
 .text.mt_gpio_init
                0x00205daa        0x2 /home/sun/t1/MT92_S1_T1_estar_WCDMA_JB9_Ldata_20140711/mediatek/preloader/out/gpio.o
                0x00205dab                mt_gpio_init
 .text.uart_recv
                0x00205dac        0x4 /home/sun/t1/MT92_S1_T1_estar_WCDMA_JB9_Ldata_20140711/mediatek/preloader/out/handshake_uart.o
 .text.uart_send
                0x00205db0       0x1a /home/sun/t1/MT92_S1_T1_estar_WCDMA_JB9_Ldata_20140711/mediatek/preloader/out/handshake_uart.o
 .text.uart_handshake_init
                0x00205dcc       0x58 /home/sun/t1/MT92_S1_T1_estar_WCDMA_JB9_Ldata_20140711/mediatek/preloader/out/handshake_uart.o
                0x00205dcd                uart_handshake_init
 .text.uart_handshake
                0x00205e24      0x17c /home/sun/t1/MT92_S1_T1_estar_WCDMA_JB9_Ldata_20140711/mediatek/preloader/out/handshake_uart.o
                0x00205e25                uart_handshake
 .text.usb_send
                0x00205fa0       0x16 /home/sun/t1/MT92_S1_T1_estar_WCDMA_JB9_Ldata_20140711/mediatek/preloader/out/handshake_usb.o
 .text.usb_recv
                0x00205fb8       0x6c /home/sun/t1/MT92_S1_T1_estar_WCDMA_JB9_Ldata_20140711/mediatek/preloader/out/handshake_usb.o
 .text.usb_handshake
                0x00206024      0x2f0 /home/sun/t1/MT92_S1_T1_estar_WCDMA_JB9_Ldata_20140711/mediatek/preloader/out/handshake_usb.o
                0x00206025                usb_handshake
 .text.i2c_set_speed
                0x00206314      0x214 /home/sun/t1/MT92_S1_T1_estar_WCDMA_JB9_Ldata_20140711/mediatek/preloader/out/i2c.o
                0x00206315                i2c_set_speed
 .text._i2c_dump_info
                0x00206528       0xc8 /home/sun/t1/MT92_S1_T1_estar_WCDMA_JB9_Ldata_20140711/mediatek/preloader/out/i2c.o
                0x00206529                _i2c_dump_info
 .text._i2c_write_reg
                0x002065f0      0x1ec /home/sun/t1/MT92_S1_T1_estar_WCDMA_JB9_Ldata_20140711/mediatek/preloader/out/i2c.o
                0x002065f1                _i2c_write_reg
 .text._i2c_get_transfer_len
                0x002067dc      0x180 /home/sun/t1/MT92_S1_T1_estar_WCDMA_JB9_Ldata_20140711/mediatek/preloader/out/i2c.o
                0x002067dd                _i2c_get_transfer_len
 .text._i2c_transfer_interface
                0x0020695c      0x258 /home/sun/t1/MT92_S1_T1_estar_WCDMA_JB9_Ldata_20140711/mediatek/preloader/out/i2c.o
                0x0020695d                _i2c_transfer_interface
 .text._i2c_check_para
                0x00206bb4       0x34 /home/sun/t1/MT92_S1_T1_estar_WCDMA_JB9_Ldata_20140711/mediatek/preloader/out/i2c.o
                0x00206bb5                _i2c_check_para
 .text._config_mt_i2c
                0x00206be8       0x9c /home/sun/t1/MT92_S1_T1_estar_WCDMA_JB9_Ldata_20140711/mediatek/preloader/out/i2c.o
                0x00206be9                _config_mt_i2c
 .text.i2c_write
                0x00206c84       0x84 /home/sun/t1/MT92_S1_T1_estar_WCDMA_JB9_Ldata_20140711/mediatek/preloader/out/i2c.o
                0x00206c85                i2c_write
 .text.i2c_write_read
                0x00206d08       0x74 /home/sun/t1/MT92_S1_T1_estar_WCDMA_JB9_Ldata_20140711/mediatek/preloader/out/i2c.o
                0x00206d09                i2c_write_read
 .text.mtk_kpd_gpios_get
                0x00206d7c       0x28 /home/sun/t1/MT92_S1_T1_estar_WCDMA_JB9_Ldata_20140711/mediatek/preloader/out/keypad.o
                0x00206d7d                mtk_kpd_gpios_get
 .text.mtk_kpd_gpio_set
                0x00206da4       0x80 /home/sun/t1/MT92_S1_T1_estar_WCDMA_JB9_Ldata_20140711/mediatek/preloader/out/keypad.o
                0x00206da5                mtk_kpd_gpio_set
 .text.set_kpd_pmic_mode
                0x00206e24       0x78 /home/sun/t1/MT92_S1_T1_estar_WCDMA_JB9_Ldata_20140711/mediatek/preloader/out/keypad.o
                0x00206e25                set_kpd_pmic_mode
 .text.enable_PMIC_kpd_clock
                0x00206e9c        0x2 /home/sun/t1/MT92_S1_T1_estar_WCDMA_JB9_Ldata_20140711/mediatek/preloader/out/keypad.o
                0x00206e9d                enable_PMIC_kpd_clock
 .text.mtk_detect_key
                0x00206ea0       0x64 /home/sun/t1/MT92_S1_T1_estar_WCDMA_JB9_Ldata_20140711/mediatek/preloader/out/keypad.o
                0x00206ea1                mtk_detect_key
 .text.mtk_detect_dl_keys
                0x00206f04       0x2c /home/sun/t1/MT92_S1_T1_estar_WCDMA_JB9_Ldata_20140711/mediatek/preloader/out/keypad.o
                0x00206f05                mtk_detect_dl_keys
 .text.wait_for_discon.constprop.0
                0x00206f30       0x64 /home/sun/t1/MT92_S1_T1_estar_WCDMA_JB9_Ldata_20140711/mediatek/preloader/out/main.o
 .text.bldr_cmd_handler
                0x00206f94      0x394 /home/sun/t1/MT92_S1_T1_estar_WCDMA_JB9_Ldata_20140711/mediatek/preloader/out/main.o
 .text.bldr_load_part
                0x00207328       0x3c /home/sun/t1/MT92_S1_T1_estar_WCDMA_JB9_Ldata_20140711/mediatek/preloader/out/main.o
                0x00207329                bldr_load_part
 .text.bldr_jump
                0x00207364       0x60 /home/sun/t1/MT92_S1_T1_estar_WCDMA_JB9_Ldata_20140711/mediatek/preloader/out/main.o
                0x00207365                bldr_jump
 .text.startup.main
                0x002073c4      0x1e4 /home/sun/t1/MT92_S1_T1_estar_WCDMA_JB9_Ldata_20140711/mediatek/preloader/out/main.o
                0x002073c5                main
 .text.complex_mem_test
                0x002075a8      0x430 /home/sun/t1/MT92_S1_T1_estar_WCDMA_JB9_Ldata_20140711/mediatek/preloader/out/memory.o
                0x002075a9                complex_mem_test
 .text.mt_mem_init
                0x002079d8       0xb4 /home/sun/t1/MT92_S1_T1_estar_WCDMA_JB9_Ldata_20140711/mediatek/preloader/out/memory.o
                0x002079d9                mt_mem_init
 .text.mmc_switch_part
                0x00207a8c       0x6e /home/sun/t1/MT92_S1_T1_estar_WCDMA_JB9_Ldata_20140711/mediatek/preloader/out/mmc_common_inter.o
 .text.mmc_bwrite
                0x00207afa       0x24 /home/sun/t1/MT92_S1_T1_estar_WCDMA_JB9_Ldata_20140711/mediatek/preloader/out/mmc_common_inter.o
 .text.mmc_bread
                0x00207b1e       0x24 /home/sun/t1/MT92_S1_T1_estar_WCDMA_JB9_Ldata_20140711/mediatek/preloader/out/mmc_common_inter.o
 .text.mmc_init_device
                0x00207b44      0x224 /home/sun/t1/MT92_S1_T1_estar_WCDMA_JB9_Ldata_20140711/mediatek/preloader/out/mmc_common_inter.o
                0x00207b45                mmc_init_device
 .text.mmc_get_device_id
                0x00207d68       0xcc /home/sun/t1/MT92_S1_T1_estar_WCDMA_JB9_Ldata_20140711/mediatek/preloader/out/mmc_common_inter.o
                0x00207d69                mmc_get_device_id
 .text.unstuff_bits
                0x00207e34       0x36 /home/sun/t1/MT92_S1_T1_estar_WCDMA_JB9_Ldata_20140711/mediatek/preloader/out/mmc_core.o
 .text.mmc_cmd  0x00207e6a       0x1a /home/sun/t1/MT92_S1_T1_estar_WCDMA_JB9_Ldata_20140711/mediatek/preloader/out/mmc_core.o
 .text.mmc_send_if_cond
                0x00207e84       0x40 /home/sun/t1/MT92_S1_T1_estar_WCDMA_JB9_Ldata_20140711/mediatek/preloader/out/mmc_core.o
 .text.mmc_app_cmd
                0x00207ec4       0x3c /home/sun/t1/MT92_S1_T1_estar_WCDMA_JB9_Ldata_20140711/mediatek/preloader/out/mmc_core.o
 .text.mmc_send_app_op_cond
                0x00207f00       0x52 /home/sun/t1/MT92_S1_T1_estar_WCDMA_JB9_Ldata_20140711/mediatek/preloader/out/mmc_core.o
 .text.mmc_send_op_cond
                0x00207f52       0x54 /home/sun/t1/MT92_S1_T1_estar_WCDMA_JB9_Ldata_20140711/mediatek/preloader/out/mmc_core.o
 .text.mmc_sd_switch.isra.0.constprop.3
                0x00207fa8       0xb8 /home/sun/t1/MT92_S1_T1_estar_WCDMA_JB9_Ldata_20140711/mediatek/preloader/out/mmc_core.o
 .text.mmc_get_host
                0x00208060       0x10 /home/sun/t1/MT92_S1_T1_estar_WCDMA_JB9_Ldata_20140711/mediatek/preloader/out/mmc_core.o
                0x00208061                mmc_get_host
 .text.mmc_get_card
                0x00208070       0x14 /home/sun/t1/MT92_S1_T1_estar_WCDMA_JB9_Ldata_20140711/mediatek/preloader/out/mmc_core.o
                0x00208071                mmc_get_card
 .text.mmc_go_idle
                0x00208084       0x1e /home/sun/t1/MT92_S1_T1_estar_WCDMA_JB9_Ldata_20140711/mediatek/preloader/out/mmc_core.o
                0x00208085                mmc_go_idle
 .text.mmc_send_status
                0x002080a2       0x2c /home/sun/t1/MT92_S1_T1_estar_WCDMA_JB9_Ldata_20140711/mediatek/preloader/out/mmc_core.o
                0x002080a3                mmc_send_status
 .text.mmc_select_card
                0x002080ce       0x24 /home/sun/t1/MT92_S1_T1_estar_WCDMA_JB9_Ldata_20140711/mediatek/preloader/out/mmc_core.o
                0x002080cf                mmc_select_card
 .text.mmc_switch
                0x002080f4       0x84 /home/sun/t1/MT92_S1_T1_estar_WCDMA_JB9_Ldata_20140711/mediatek/preloader/out/mmc_core.o
                0x002080f5                mmc_switch
 .text.mmc_switch_hs
                0x00208178       0x50 /home/sun/t1/MT92_S1_T1_estar_WCDMA_JB9_Ldata_20140711/mediatek/preloader/out/mmc_core.o
                0x00208179                mmc_switch_hs
 .text.mmc_read_ext_csd
                0x002081c8      0x148 /home/sun/t1/MT92_S1_T1_estar_WCDMA_JB9_Ldata_20140711/mediatek/preloader/out/mmc_core.o
                0x002081c9                mmc_read_ext_csd
 .text.mmc_set_clock
                0x00208310       0x1c /home/sun/t1/MT92_S1_T1_estar_WCDMA_JB9_Ldata_20140711/mediatek/preloader/out/mmc_core.o
                0x00208311                mmc_set_clock
 .text.mmc_dev_bwrite
                0x0020832c       0xf0 /home/sun/t1/MT92_S1_T1_estar_WCDMA_JB9_Ldata_20140711/mediatek/preloader/out/mmc_core.o
 .text.mmc_set_card_detect
                0x0020841c       0x26 /home/sun/t1/MT92_S1_T1_estar_WCDMA_JB9_Ldata_20140711/mediatek/preloader/out/mmc_core.o
                0x0020841d                mmc_set_card_detect
 .text.mmc_set_blk_length
                0x00208442       0x32 /home/sun/t1/MT92_S1_T1_estar_WCDMA_JB9_Ldata_20140711/mediatek/preloader/out/mmc_core.o
                0x00208443                mmc_set_blk_length
 .text.mmc_set_bus_width
                0x00208474      0x134 /home/sun/t1/MT92_S1_T1_estar_WCDMA_JB9_Ldata_20140711/mediatek/preloader/out/mmc_core.o
                0x00208475                mmc_set_bus_width
 .text.mmc_dev_bread
                0x002085a8       0xc0 /home/sun/t1/MT92_S1_T1_estar_WCDMA_JB9_Ldata_20140711/mediatek/preloader/out/mmc_core.o
                0x002085a9                mmc_dev_bread
 .text.mmc_block_read
                0x00208668       0x9c /home/sun/t1/MT92_S1_T1_estar_WCDMA_JB9_Ldata_20140711/mediatek/preloader/out/mmc_core.o
                0x00208669                mmc_block_read
 .text.mmc_block_write
                0x00208704       0x9c /home/sun/t1/MT92_S1_T1_estar_WCDMA_JB9_Ldata_20140711/mediatek/preloader/out/mmc_core.o
                0x00208705                mmc_block_write
 .text.mmc_stuff_buff
                0x002087a0       0x40 /home/sun/t1/MT92_S1_T1_estar_WCDMA_JB9_Ldata_20140711/mediatek/preloader/out/mmc_core.o
                0x002087a1                mmc_stuff_buff
 .text.mmc_get_sandisk_fwid
                0x002087e0      0x10c /home/sun/t1/MT92_S1_T1_estar_WCDMA_JB9_Ldata_20140711/mediatek/preloader/out/mmc_core.o
                0x002087e1                mmc_get_sandisk_fwid
 .text.mmc_init_mem_card
                0x002088ec      0x66c /home/sun/t1/MT92_S1_T1_estar_WCDMA_JB9_Ldata_20140711/mediatek/preloader/out/mmc_core.o
                0x002088ed                mmc_init_mem_card
 .text.mmc_init_card
                0x00208f58       0x90 /home/sun/t1/MT92_S1_T1_estar_WCDMA_JB9_Ldata_20140711/mediatek/preloader/out/mmc_core.o
                0x00208f59                mmc_init_card
 .text.mmc_init_host
                0x00208fe8       0x1a /home/sun/t1/MT92_S1_T1_estar_WCDMA_JB9_Ldata_20140711/mediatek/preloader/out/mmc_core.o
                0x00208fe9                mmc_init_host
 .text.mmc_init
                0x00209004       0x54 /home/sun/t1/MT92_S1_T1_estar_WCDMA_JB9_Ldata_20140711/mediatek/preloader/out/mmc_core.o
                0x00209005                mmc_init
 .text.mrdump_check_ok
                0x00209058       0x54 /home/sun/t1/MT92_S1_T1_estar_WCDMA_JB9_Ldata_20140711/mediatek/preloader/out/mrdump.o
                0x00209059                mrdump_check_ok
 .text.msdc_clr_fifo
                0x002090ac       0x2e /home/sun/t1/MT92_S1_T1_estar_WCDMA_JB9_Ldata_20140711/mediatek/preloader/out/msdc.o
                0x002090ad                msdc_clr_fifo
 .text.msdc_pin_pud.isra.2
                0x002090dc      0x5fc /home/sun/t1/MT92_S1_T1_estar_WCDMA_JB9_Ldata_20140711/mediatek/preloader/out/msdc.o
 .text.msdc_set_timeout
                0x002096d8       0x44 /home/sun/t1/MT92_S1_T1_estar_WCDMA_JB9_Ldata_20140711/mediatek/preloader/out/msdc.o
                0x002096d9                msdc_set_timeout
 .text.msdc_set_blklen
                0x0020971c        0xe /home/sun/t1/MT92_S1_T1_estar_WCDMA_JB9_Ldata_20140711/mediatek/preloader/out/msdc.o
                0x0020971d                msdc_set_blklen
 .text.msdc_set_blknum
                0x0020972a        0x6 /home/sun/t1/MT92_S1_T1_estar_WCDMA_JB9_Ldata_20140711/mediatek/preloader/out/msdc.o
                0x0020972b                msdc_set_blknum
 .text.msdc_reset
                0x00209730       0x2a /home/sun/t1/MT92_S1_T1_estar_WCDMA_JB9_Ldata_20140711/mediatek/preloader/out/msdc.o
                0x00209731                msdc_reset
 .text.msdc_abort
                0x0020975a       0x20 /home/sun/t1/MT92_S1_T1_estar_WCDMA_JB9_Ldata_20140711/mediatek/preloader/out/msdc.o
                0x0020975b                msdc_abort
 .text.msdc_intr_wait
                0x0020977a       0x12 /home/sun/t1/MT92_S1_T1_estar_WCDMA_JB9_Ldata_20140711/mediatek/preloader/out/msdc.o
                0x0020977b                msdc_intr_wait
 .text.msdc_intr_unmask
                0x0020978c        0xa /home/sun/t1/MT92_S1_T1_estar_WCDMA_JB9_Ldata_20140711/mediatek/preloader/out/msdc.o
                0x0020978d                msdc_intr_unmask
 .text.msdc_send_cmd
                0x00209798      0x1e0 /home/sun/t1/MT92_S1_T1_estar_WCDMA_JB9_Ldata_20140711/mediatek/preloader/out/msdc.o
                0x00209799                msdc_send_cmd
 .text.msdc_wait_rsp
                0x00209978       0xec /home/sun/t1/MT92_S1_T1_estar_WCDMA_JB9_Ldata_20140711/mediatek/preloader/out/msdc.o
                0x00209979                msdc_wait_rsp
 .text.msdc_pio_read_word
                0x00209a64       0xb8 /home/sun/t1/MT92_S1_T1_estar_WCDMA_JB9_Ldata_20140711/mediatek/preloader/out/msdc.o
                0x00209a65                msdc_pio_read_word
 .text.msdc_pio_read
                0x00209b1c       0x16 /home/sun/t1/MT92_S1_T1_estar_WCDMA_JB9_Ldata_20140711/mediatek/preloader/out/msdc.o
                0x00209b1d                msdc_pio_read
 .text.msdc_pio_write_word
                0x00209b34       0x94 /home/sun/t1/MT92_S1_T1_estar_WCDMA_JB9_Ldata_20140711/mediatek/preloader/out/msdc.o
                0x00209b35                msdc_pio_write_word
 .text.msdc_pio_write
                0x00209bc8       0x16 /home/sun/t1/MT92_S1_T1_estar_WCDMA_JB9_Ldata_20140711/mediatek/preloader/out/msdc.o
                0x00209bc9                msdc_pio_write
 .text.msdc_config_clksrc
                0x00209be0       0x10 /home/sun/t1/MT92_S1_T1_estar_WCDMA_JB9_Ldata_20140711/mediatek/preloader/out/msdc.o
                0x00209be1                msdc_config_clksrc
 .text.msdc_config_clock
                0x00209bf0       0xec /home/sun/t1/MT92_S1_T1_estar_WCDMA_JB9_Ldata_20140711/mediatek/preloader/out/msdc.o
                0x00209bf1                msdc_config_clock
 .text.msdc_config_bus
                0x00209cdc       0x34 /home/sun/t1/MT92_S1_T1_estar_WCDMA_JB9_Ldata_20140711/mediatek/preloader/out/msdc.o
                0x00209cdd                msdc_config_bus
 .text.msdc_config_pin
                0x00209d10       0x20 /home/sun/t1/MT92_S1_T1_estar_WCDMA_JB9_Ldata_20140711/mediatek/preloader/out/msdc.o
                0x00209d11                msdc_config_pin
 .text.msdc_clock
                0x00209d30        0x2 /home/sun/t1/MT92_S1_T1_estar_WCDMA_JB9_Ldata_20140711/mediatek/preloader/out/msdc.o
                0x00209d31                msdc_clock
 .text.msdc_host_power
                0x00209d32       0x28 /home/sun/t1/MT92_S1_T1_estar_WCDMA_JB9_Ldata_20140711/mediatek/preloader/out/msdc.o
                0x00209d33                msdc_host_power
 .text.msdc_card_power
                0x00209d5a        0x2 /home/sun/t1/MT92_S1_T1_estar_WCDMA_JB9_Ldata_20140711/mediatek/preloader/out/msdc.o
                0x00209d5b                msdc_card_power
 .text.msdc_power
                0x00209d5c       0x30 /home/sun/t1/MT92_S1_T1_estar_WCDMA_JB9_Ldata_20140711/mediatek/preloader/out/msdc.o
                0x00209d5d                msdc_power
 .text.msdc_reset_tune_counter
                0x00209d8c        0x6 /home/sun/t1/MT92_S1_T1_estar_WCDMA_JB9_Ldata_20140711/mediatek/preloader/out/msdc.o
                0x00209d8d                msdc_reset_tune_counter
 .text.msdc_tune_cmdrsp
                0x00209d94      0x250 /home/sun/t1/MT92_S1_T1_estar_WCDMA_JB9_Ldata_20140711/mediatek/preloader/out/msdc.o
                0x00209d95                msdc_tune_cmdrsp
 .text.msdc_cmd
                0x00209fe4       0x4c /home/sun/t1/MT92_S1_T1_estar_WCDMA_JB9_Ldata_20140711/mediatek/preloader/out/msdc.o
                0x00209fe5                msdc_cmd
 .text.msdc_abort_handler
                0x0020a030       0xc4 /home/sun/t1/MT92_S1_T1_estar_WCDMA_JB9_Ldata_20140711/mediatek/preloader/out/msdc.o
                0x0020a031                msdc_abort_handler
 .text.msdc_pio_bwrite
                0x0020a0f4       0xe8 /home/sun/t1/MT92_S1_T1_estar_WCDMA_JB9_Ldata_20140711/mediatek/preloader/out/msdc.o
                0x0020a0f5                msdc_pio_bwrite
 .text.msdc_pio_bread
                0x0020a1dc       0xf0 /home/sun/t1/MT92_S1_T1_estar_WCDMA_JB9_Ldata_20140711/mediatek/preloader/out/msdc.o
                0x0020a1dd                msdc_pio_bread
 .text.msdc_pio_send_sandisk_fwid
                0x0020a2cc       0x98 /home/sun/t1/MT92_S1_T1_estar_WCDMA_JB9_Ldata_20140711/mediatek/preloader/out/msdc.o
                0x0020a2cd                msdc_pio_send_sandisk_fwid
 .text.msdc_pio_get_sandisk_fwid
                0x0020a364       0xa4 /home/sun/t1/MT92_S1_T1_estar_WCDMA_JB9_Ldata_20140711/mediatek/preloader/out/msdc.o
                0x0020a365                msdc_pio_get_sandisk_fwid
 .text.msdc_tune_bread
                0x0020a408      0x390 /home/sun/t1/MT92_S1_T1_estar_WCDMA_JB9_Ldata_20140711/mediatek/preloader/out/msdc.o
                0x0020a409                msdc_tune_bread
 .text.msdc_tune_read
                0x0020a798      0x2bc /home/sun/t1/MT92_S1_T1_estar_WCDMA_JB9_Ldata_20140711/mediatek/preloader/out/msdc.o
                0x0020a799                msdc_tune_read
 .text.msdc_init
                0x0020aa54      0x2c0 /home/sun/t1/MT92_S1_T1_estar_WCDMA_JB9_Ldata_20140711/mediatek/preloader/out/msdc.o
                0x0020aa55                msdc_init
 .text.msdc_uffs
                0x0020ad14       0x32 /home/sun/t1/MT92_S1_T1_estar_WCDMA_JB9_Ldata_20140711/mediatek/preloader/out/msdc_utils.o
                0x0020ad15                msdc_uffs
 .text.msdc_set_field
                0x0020ad46       0x1c /home/sun/t1/MT92_S1_T1_estar_WCDMA_JB9_Ldata_20140711/mediatek/preloader/out/msdc_utils.o
                0x0020ad47                msdc_set_field
 .text.msdc_get_field
                0x0020ad62       0x16 /home/sun/t1/MT92_S1_T1_estar_WCDMA_JB9_Ldata_20140711/mediatek/preloader/out/msdc_utils.o
                0x0020ad63                msdc_get_field
 .text.pmt_init
                0x0020ad78      0x2c8 /home/sun/t1/MT92_S1_T1_estar_WCDMA_JB9_Ldata_20140711/mediatek/preloader/out/partition.o
                0x0020ad79                pmt_init
 .text.pmt_get_part
                0x0020b040       0x7c /home/sun/t1/MT92_S1_T1_estar_WCDMA_JB9_Ldata_20140711/mediatek/preloader/out/partition.o
                0x0020b041                pmt_get_part
 .text.part_init
                0x0020b0bc       0xd4 /home/sun/t1/MT92_S1_T1_estar_WCDMA_JB9_Ldata_20140711/mediatek/preloader/out/part.o
                0x0020b0bd                part_init
 .text.part_get
                0x0020b190       0x40 /home/sun/t1/MT92_S1_T1_estar_WCDMA_JB9_Ldata_20140711/mediatek/preloader/out/part.o
                0x0020b191                part_get
 .text.part_load
                0x0020b1d0      0x1dc /home/sun/t1/MT92_S1_T1_estar_WCDMA_JB9_Ldata_20140711/mediatek/preloader/out/part.o
                0x0020b1d1                part_load
 .text.part_dump
                0x0020b3ac       0x7c /home/sun/t1/MT92_S1_T1_estar_WCDMA_JB9_Ldata_20140711/mediatek/preloader/out/part.o
                0x0020b3ad                part_dump
 .text.set_to_usb_mode
                0x0020b428       0xdc /home/sun/t1/MT92_S1_T1_estar_WCDMA_JB9_Ldata_20140711/mediatek/preloader/out/platform.o
                0x0020b429                set_to_usb_mode
 .text.platform_set_chrg_cur
                0x0020b504        0x4 /home/sun/t1/MT92_S1_T1_estar_WCDMA_JB9_Ldata_20140711/mediatek/preloader/out/platform.o
                0x0020b505                platform_set_chrg_cur
 .text.usb_accessory_in
                0x0020b508       0x1e /home/sun/t1/MT92_S1_T1_estar_WCDMA_JB9_Ldata_20140711/mediatek/preloader/out/platform.o
                0x0020b509                usb_accessory_in
 .text.usb_cable_in
                0x0020b528       0x94 /home/sun/t1/MT92_S1_T1_estar_WCDMA_JB9_Ldata_20140711/mediatek/preloader/out/platform.o
                0x0020b529                usb_cable_in
 .text.set_to_uart_mode
                0x0020b5bc      0x15c /home/sun/t1/MT92_S1_T1_estar_WCDMA_JB9_Ldata_20140711/mediatek/preloader/out/platform.o
                0x0020b5bd                set_to_uart_mode
 .text.platform_vusb_on
                0x0020b718       0x2c /home/sun/t1/MT92_S1_T1_estar_WCDMA_JB9_Ldata_20140711/mediatek/preloader/out/platform.o
                0x0020b719                platform_vusb_on
 .text.platform_set_boot_args
                0x0020b744      0x21c /home/sun/t1/MT92_S1_T1_estar_WCDMA_JB9_Ldata_20140711/mediatek/preloader/out/platform.o
                0x0020b745                platform_set_boot_args
 .text.platform_set_dl_boot_args
                0x0020b960       0x7c /home/sun/t1/MT92_S1_T1_estar_WCDMA_JB9_Ldata_20140711/mediatek/preloader/out/platform.o
                0x0020b961                platform_set_dl_boot_args
 .text.platform_wdt_all_kick
                0x0020b9dc        0xe /home/sun/t1/MT92_S1_T1_estar_WCDMA_JB9_Ldata_20140711/mediatek/preloader/out/platform.o
                0x0020b9dd                platform_wdt_all_kick
 .text.platform_wdt_kick
                0x0020b9ea        0x4 /home/sun/t1/MT92_S1_T1_estar_WCDMA_JB9_Ldata_20140711/mediatek/preloader/out/platform.o
                0x0020b9eb                platform_wdt_kick
 .text.platform_safe_mode
                0x0020b9f0       0x3c /home/sun/t1/MT92_S1_T1_estar_WCDMA_JB9_Ldata_20140711/mediatek/preloader/out/platform.o
                0x0020b9f1                platform_safe_mode
 .text.platform_emergency_download
                0x0020ba2c       0x38 /home/sun/t1/MT92_S1_T1_estar_WCDMA_JB9_Ldata_20140711/mediatek/preloader/out/platform.o
                0x0020ba2d                platform_emergency_download
 .text.platform_get_mcp_id
                0x0020ba64       0x1e /home/sun/t1/MT92_S1_T1_estar_WCDMA_JB9_Ldata_20140711/mediatek/preloader/out/platform.o
                0x0020ba65                platform_get_mcp_id
 .text.platform_chip_ver
                0x0020ba82        0x6 /home/sun/t1/MT92_S1_T1_estar_WCDMA_JB9_Ldata_20140711/mediatek/preloader/out/platform.o
                0x0020ba83                platform_chip_ver
 .text.platform_com_wait_forever_check
                0x0020ba88        0x4 /home/sun/t1/MT92_S1_T1_estar_WCDMA_JB9_Ldata_20140711/mediatek/preloader/out/platform.o
                0x0020ba89                platform_com_wait_forever_check
 .text.platform_pre_init
                0x0020ba8c      0x13c /home/sun/t1/MT92_S1_T1_estar_WCDMA_JB9_Ldata_20140711/mediatek/preloader/out/platform.o
                0x0020ba8d                platform_pre_init
 .text.platform_init
                0x0020bbc8      0x200 /home/sun/t1/MT92_S1_T1_estar_WCDMA_JB9_Ldata_20140711/mediatek/preloader/out/platform.o
                0x0020bbc9                platform_init
 .text.platform_post_init
                0x0020bdc8       0xbc /home/sun/t1/MT92_S1_T1_estar_WCDMA_JB9_Ldata_20140711/mediatek/preloader/out/platform.o
                0x0020bdc9                platform_post_init
 .text.platform_error_handler
                0x0020be84       0x58 /home/sun/t1/MT92_S1_T1_estar_WCDMA_JB9_Ldata_20140711/mediatek/preloader/out/platform.o
                0x0020be85                platform_error_handler
 .text.platform_assert
                0x0020bedc       0x20 /home/sun/t1/MT92_S1_T1_estar_WCDMA_JB9_Ldata_20140711/mediatek/preloader/out/platform.o
                0x0020bedd                platform_assert
 .text.mt_mempll_init
                0x0020befc      0x3dc /home/sun/t1/MT92_S1_T1_estar_WCDMA_JB9_Ldata_20140711/mediatek/preloader/out/pll.o
                0x0020befd                mt_mempll_init
 .text.mt_get_cpu_freq
                0x0020c2d8       0x7c /home/sun/t1/MT92_S1_T1_estar_WCDMA_JB9_Ldata_20140711/mediatek/preloader/out/pll.o
                0x0020c2d9                mt_get_cpu_freq
 .text.mt_get_mem_freq
                0x0020c354       0x78 /home/sun/t1/MT92_S1_T1_estar_WCDMA_JB9_Ldata_20140711/mediatek/preloader/out/pll.o
                0x0020c355                mt_get_mem_freq
 .text.mt_get_bus_freq
                0x0020c3cc       0x78 /home/sun/t1/MT92_S1_T1_estar_WCDMA_JB9_Ldata_20140711/mediatek/preloader/out/pll.o
                0x0020c3cd                mt_get_bus_freq
 .text.mt_pll_post_init
                0x0020c444       0x3c /home/sun/t1/MT92_S1_T1_estar_WCDMA_JB9_Ldata_20140711/mediatek/preloader/out/pll.o
                0x0020c445                mt_pll_post_init
 .text.spm_mtcmos_ctrl_disp
                0x0020c480       0xcc /home/sun/t1/MT92_S1_T1_estar_WCDMA_JB9_Ldata_20140711/mediatek/preloader/out/pll.o
                0x0020c481                spm_mtcmos_ctrl_disp
 .text.mt_pll_init
                0x0020c54c      0x2ac /home/sun/t1/MT92_S1_T1_estar_WCDMA_JB9_Ldata_20140711/mediatek/preloader/out/pll.o
                0x0020c54d                mt_pll_init
 .text.mt6333_write_byte
                0x0020c7f8       0x4c /home/sun/t1/MT92_S1_T1_estar_WCDMA_JB9_Ldata_20140711/mediatek/preloader/out/pmic_6333.o
                0x0020c7f9                mt6333_write_byte
 .text.mt6333_read_byte
                0x0020c844       0x44 /home/sun/t1/MT92_S1_T1_estar_WCDMA_JB9_Ldata_20140711/mediatek/preloader/out/pmic_6333.o
                0x0020c845                mt6333_read_byte
 .text.mt6333_read_interface
                0x0020c888       0x24 /home/sun/t1/MT92_S1_T1_estar_WCDMA_JB9_Ldata_20140711/mediatek/preloader/out/pmic_6333.o
                0x0020c889                mt6333_read_interface
 .text.mt6333_config_interface
                0x0020c8ac       0x34 /home/sun/t1/MT92_S1_T1_estar_WCDMA_JB9_Ldata_20140711/mediatek/preloader/out/pmic_6333.o
                0x0020c8ad                mt6333_config_interface
 .text.mt6333_get_reg_value
                0x0020c8e0       0x18 /home/sun/t1/MT92_S1_T1_estar_WCDMA_JB9_Ldata_20140711/mediatek/preloader/out/pmic_6333.o
                0x0020c8e1                mt6333_get_reg_value
 .text.mt6333_init
                0x0020c8f8       0x40 /home/sun/t1/MT92_S1_T1_estar_WCDMA_JB9_Ldata_20140711/mediatek/preloader/out/pmic_6333.o
                0x0020c8f9                mt6333_init
 .text.pmic_read_interface
                0x0020c938       0x40 /home/sun/t1/MT92_S1_T1_estar_WCDMA_JB9_Ldata_20140711/mediatek/preloader/out/pmic.o
                0x0020c939                pmic_read_interface
 .text.pmic_config_interface
                0x0020c978       0x58 /home/sun/t1/MT92_S1_T1_estar_WCDMA_JB9_Ldata_20140711/mediatek/preloader/out/pmic.o
                0x0020c979                pmic_config_interface
 .text.pmic_lock
                0x0020c9d0        0x2 /home/sun/t1/MT92_S1_T1_estar_WCDMA_JB9_Ldata_20140711/mediatek/preloader/out/pmic.o
                0x0020c9d1                pmic_lock
 .text.pmic_unlock
                0x0020c9d2        0x2 /home/sun/t1/MT92_S1_T1_estar_WCDMA_JB9_Ldata_20140711/mediatek/preloader/out/pmic.o
                0x0020c9d3                pmic_unlock
 .text.upmu_set_rg_bc11_bb_ctrl
                0x0020c9d4       0x1c /home/sun/t1/MT92_S1_T1_estar_WCDMA_JB9_Ldata_20140711/mediatek/preloader/out/pmic.o
                0x0020c9d5                upmu_set_rg_bc11_bb_ctrl
 .text.upmu_set_rg_bc11_rst
                0x0020c9f0       0x1c /home/sun/t1/MT92_S1_T1_estar_WCDMA_JB9_Ldata_20140711/mediatek/preloader/out/pmic.o
                0x0020c9f1                upmu_set_rg_bc11_rst
 .text.upmu_set_rg_bc11_vsrc_en
                0x0020ca0c       0x1c /home/sun/t1/MT92_S1_T1_estar_WCDMA_JB9_Ldata_20140711/mediatek/preloader/out/pmic.o
                0x0020ca0d                upmu_set_rg_bc11_vsrc_en
 .text.upmu_get_rgs_bc11_cmp_out
                0x0020ca28       0x22 /home/sun/t1/MT92_S1_T1_estar_WCDMA_JB9_Ldata_20140711/mediatek/preloader/out/pmic.o
                0x0020ca29                upmu_get_rgs_bc11_cmp_out
 .text.upmu_set_rg_bc11_vref_vth
                0x0020ca4a       0x1c /home/sun/t1/MT92_S1_T1_estar_WCDMA_JB9_Ldata_20140711/mediatek/preloader/out/pmic.o
                0x0020ca4b                upmu_set_rg_bc11_vref_vth
 .text.upmu_set_rg_bc11_cmp_en
                0x0020ca66       0x1c /home/sun/t1/MT92_S1_T1_estar_WCDMA_JB9_Ldata_20140711/mediatek/preloader/out/pmic.o
                0x0020ca67                upmu_set_rg_bc11_cmp_en
 .text.upmu_set_rg_bc11_ipd_en
                0x0020ca82       0x1c /home/sun/t1/MT92_S1_T1_estar_WCDMA_JB9_Ldata_20140711/mediatek/preloader/out/pmic.o
                0x0020ca83                upmu_set_rg_bc11_ipd_en
 .text.upmu_set_rg_bc11_ipu_en
                0x0020ca9e       0x1c /home/sun/t1/MT92_S1_T1_estar_WCDMA_JB9_Ldata_20140711/mediatek/preloader/out/pmic.o
                0x0020ca9f                upmu_set_rg_bc11_ipu_en
 .text.upmu_set_rg_bc11_bias_en
                0x0020caba       0x1c /home/sun/t1/MT92_S1_T1_estar_WCDMA_JB9_Ldata_20140711/mediatek/preloader/out/pmic.o
                0x0020cabb                upmu_set_rg_bc11_bias_en
 .text.hw_bc11_init
                0x0020cad6       0x40 /home/sun/t1/MT92_S1_T1_estar_WCDMA_JB9_Ldata_20140711/mediatek/preloader/out/pmic.o
                0x0020cad7                hw_bc11_init
 .text.hw_bc11_DCD
                0x0020cb16       0x44 /home/sun/t1/MT92_S1_T1_estar_WCDMA_JB9_Ldata_20140711/mediatek/preloader/out/pmic.o
                0x0020cb17                hw_bc11_DCD
 .text.hw_bc11_stepA1
                0x0020cb5a       0x30 /home/sun/t1/MT92_S1_T1_estar_WCDMA_JB9_Ldata_20140711/mediatek/preloader/out/pmic.o
                0x0020cb5b                hw_bc11_stepA1
 .text.hw_bc11_stepB1
                0x0020cb8a       0x36 /home/sun/t1/MT92_S1_T1_estar_WCDMA_JB9_Ldata_20140711/mediatek/preloader/out/pmic.o
                0x0020cb8b                hw_bc11_stepB1
 .text.hw_bc11_stepC1
                0x0020cbc0       0x36 /home/sun/t1/MT92_S1_T1_estar_WCDMA_JB9_Ldata_20140711/mediatek/preloader/out/pmic.o
                0x0020cbc1                hw_bc11_stepC1
 .text.hw_bc11_stepA2
                0x0020cbf6       0x3c /home/sun/t1/MT92_S1_T1_estar_WCDMA_JB9_Ldata_20140711/mediatek/preloader/out/pmic.o
                0x0020cbf7                hw_bc11_stepA2
 .text.hw_bc11_stepB2
                0x0020cc32       0x36 /home/sun/t1/MT92_S1_T1_estar_WCDMA_JB9_Ldata_20140711/mediatek/preloader/out/pmic.o
                0x0020cc33                hw_bc11_stepB2
 .text.hw_bc11_done
                0x0020cc68       0x2e /home/sun/t1/MT92_S1_T1_estar_WCDMA_JB9_Ldata_20140711/mediatek/preloader/out/pmic.o
                0x0020cc69                hw_bc11_done
 .text.hw_charger_type_detection
                0x0020cc98       0xac /home/sun/t1/MT92_S1_T1_estar_WCDMA_JB9_Ldata_20140711/mediatek/preloader/out/pmic.o
                0x0020cc99                hw_charger_type_detection
 .text.mt_charger_type_detection
                0x0020cd44       0x44 /home/sun/t1/MT92_S1_T1_estar_WCDMA_JB9_Ldata_20140711/mediatek/preloader/out/pmic.o
                0x0020cd45                mt_charger_type_detection
 .text.get_pmic_chip_version
                0x0020cd88       0x1a /home/sun/t1/MT92_S1_T1_estar_WCDMA_JB9_Ldata_20140711/mediatek/preloader/out/pmic.o
                0x0020cd89                get_pmic_chip_version
 .text.pmic_detect_powerkey
                0x0020cda4       0x3c /home/sun/t1/MT92_S1_T1_estar_WCDMA_JB9_Ldata_20140711/mediatek/preloader/out/pmic.o
                0x0020cda5                pmic_detect_powerkey
 .text.pmic_IsUsbCableIn
                0x0020cde0       0x26 /home/sun/t1/MT92_S1_T1_estar_WCDMA_JB9_Ldata_20140711/mediatek/preloader/out/pmic.o
                0x0020cde1                pmic_IsUsbCableIn
 .text.pmic_IsVbatDrop
                0x0020ce08        0xc /home/sun/t1/MT92_S1_T1_estar_WCDMA_JB9_Ldata_20140711/mediatek/preloader/out/pmic.o
                0x0020ce09                pmic_IsVbatDrop
 .text.hw_set_cc
                0x0020ce14      0x228 /home/sun/t1/MT92_S1_T1_estar_WCDMA_JB9_Ldata_20140711/mediatek/preloader/out/pmic.o
                0x0020ce15                hw_set_cc
 .text.pl_hw_ulc_det
                0x0020d03c       0x1e /home/sun/t1/MT92_S1_T1_estar_WCDMA_JB9_Ldata_20140711/mediatek/preloader/out/pmic.o
                0x0020d03d                pl_hw_ulc_det
 .text.hw_check_battery
                0x0020d05a        0x4 /home/sun/t1/MT92_S1_T1_estar_WCDMA_JB9_Ldata_20140711/mediatek/preloader/out/pmic.o
                0x0020d05b                hw_check_battery
 .text.pl_charging
                0x0020d060       0x90 /home/sun/t1/MT92_S1_T1_estar_WCDMA_JB9_Ldata_20140711/mediatek/preloader/out/pmic.o
                0x0020d061                pl_charging
 .text.pl_kick_chr_wdt
                0x0020d0f0       0x42 /home/sun/t1/MT92_S1_T1_estar_WCDMA_JB9_Ldata_20140711/mediatek/preloader/out/pmic.o
                0x0020d0f1                pl_kick_chr_wdt
 .text.pl_close_pre_chr_led
                0x0020d134       0x20 /home/sun/t1/MT92_S1_T1_estar_WCDMA_JB9_Ldata_20140711/mediatek/preloader/out/pmic.o
                0x0020d135                pl_close_pre_chr_led
 .text.usbdl_wo_battery_forced
                0x0020d154       0x80 /home/sun/t1/MT92_S1_T1_estar_WCDMA_JB9_Ldata_20140711/mediatek/preloader/out/pmic.o
                0x0020d155                usbdl_wo_battery_forced
 .text.pmic_init
                0x0020d1d4       0xfc /home/sun/t1/MT92_S1_T1_estar_WCDMA_JB9_Ldata_20140711/mediatek/preloader/out/pmic.o
                0x0020d1d5                pmic_init
 .text.wait_for_fsm_vldclr
                0x0020d2d0        0xc /home/sun/t1/MT92_S1_T1_estar_WCDMA_JB9_Ldata_20140711/mediatek/preloader/out/pmic_wrap_init.o
 .text.wait_for_sync
                0x0020d2dc        0xc /home/sun/t1/MT92_S1_T1_estar_WCDMA_JB9_Ldata_20140711/mediatek/preloader/out/pmic_wrap_init.o
 .text.wait_for_idle_and_sync
                0x0020d2e8       0x16 /home/sun/t1/MT92_S1_T1_estar_WCDMA_JB9_Ldata_20140711/mediatek/preloader/out/pmic_wrap_init.o
 .text.wait_for_cipher_ready
                0x0020d2fe        0xa /home/sun/t1/MT92_S1_T1_estar_WCDMA_JB9_Ldata_20140711/mediatek/preloader/out/pmic_wrap_init.o
 .text.wait_for_state_ready_init.constprop.3
                0x0020d308       0x50 /home/sun/t1/MT92_S1_T1_estar_WCDMA_JB9_Ldata_20140711/mediatek/preloader/out/pmic_wrap_init.o
 .text.pwrap_dump_ap_register
                0x0020d358       0x34 /home/sun/t1/MT92_S1_T1_estar_WCDMA_JB9_Ldata_20140711/mediatek/preloader/out/pmic_wrap_init.o
                0x0020d359                pwrap_dump_ap_register
 .text._pwrap_wacs2_nochk
                0x0020d38c      0x14c /home/sun/t1/MT92_S1_T1_estar_WCDMA_JB9_Ldata_20140711/mediatek/preloader/out/pmic_wrap_init.o
 .text.pwrap_write_nochk
                0x0020d4d8        0xe /home/sun/t1/MT92_S1_T1_estar_WCDMA_JB9_Ldata_20140711/mediatek/preloader/out/pmic_wrap_init.o
 .text.pwrap_init
                0x0020d4e8      0x66c /home/sun/t1/MT92_S1_T1_estar_WCDMA_JB9_Ldata_20140711/mediatek/preloader/out/pmic_wrap_init.o
                0x0020d4e9                pwrap_init
 .text.pwrap_wacs2
                0x0020db54      0x1c8 /home/sun/t1/MT92_S1_T1_estar_WCDMA_JB9_Ldata_20140711/mediatek/preloader/out/pmic_wrap_init.o
                0x0020db55                pwrap_wacs2
 .text.pwrap_write
                0x0020dd1c        0xe /home/sun/t1/MT92_S1_T1_estar_WCDMA_JB9_Ldata_20140711/mediatek/preloader/out/pmic_wrap_init.o
                0x0020dd1d                pwrap_write
 .text.pwrap_read
                0x0020dd2a        0xe /home/sun/t1/MT92_S1_T1_estar_WCDMA_JB9_Ldata_20140711/mediatek/preloader/out/pmic_wrap_init.o
                0x0020dd2b                pwrap_read
 .text.pwrap_init_preloader
                0x0020dd38       0x44 /home/sun/t1/MT92_S1_T1_estar_WCDMA_JB9_Ldata_20140711/mediatek/preloader/out/pmic_wrap_init.o
                0x0020dd39                pwrap_init_preloader
 .text.outchar  0x0020dd7c       0x44 /home/sun/t1/MT92_S1_T1_estar_WCDMA_JB9_Ldata_20140711/mediatek/preloader/out/print.o
 .text.outhex   0x0020ddc0       0x3a /home/sun/t1/MT92_S1_T1_estar_WCDMA_JB9_Ldata_20140711/mediatek/preloader/out/print.o
 .text.outdec   0x0020ddfa       0x28 /home/sun/t1/MT92_S1_T1_estar_WCDMA_JB9_Ldata_20140711/mediatek/preloader/out/print.o
 .text.outstr   0x0020de22       0x22 /home/sun/t1/MT92_S1_T1_estar_WCDMA_JB9_Ldata_20140711/mediatek/preloader/out/print.o
 .text.log_buf_ctrl
                0x0020de44       0xfc /home/sun/t1/MT92_S1_T1_estar_WCDMA_JB9_Ldata_20140711/mediatek/preloader/out/print.o
                0x0020de45                log_buf_ctrl
 .text.log_ctrl
                0x0020df40       0x48 /home/sun/t1/MT92_S1_T1_estar_WCDMA_JB9_Ldata_20140711/mediatek/preloader/out/print.o
                0x0020df41                log_ctrl
 .text.log_status
                0x0020df88       0x14 /home/sun/t1/MT92_S1_T1_estar_WCDMA_JB9_Ldata_20140711/mediatek/preloader/out/print.o
                0x0020df89                log_status
 .text.vprint   0x0020df9c      0x138 /home/sun/t1/MT92_S1_T1_estar_WCDMA_JB9_Ldata_20140711/mediatek/preloader/out/print.o
                0x0020df9d                vprint
 .text.print    0x0020e0d4       0x18 /home/sun/t1/MT92_S1_T1_estar_WCDMA_JB9_Ldata_20140711/mediatek/preloader/out/print.o
                0x0020e0d5                print
 .text.dbg_print
                0x0020e0ec       0x12 /home/sun/t1/MT92_S1_T1_estar_WCDMA_JB9_Ldata_20140711/mediatek/preloader/out/print.o
                0x0020e0ed                dbg_print
 .text.rtc_mktime
                0x0020e100       0x78 /home/sun/t1/MT92_S1_T1_estar_WCDMA_JB9_Ldata_20140711/mediatek/preloader/out/rtc.o
 .text.RTC_Read
                0x0020e178       0x14 /home/sun/t1/MT92_S1_T1_estar_WCDMA_JB9_Ldata_20140711/mediatek/preloader/out/rtc.o
 .text.RTC_Write
                0x0020e18c        0x4 /home/sun/t1/MT92_S1_T1_estar_WCDMA_JB9_Ldata_20140711/mediatek/preloader/out/rtc.o
 .text.Write_trigger
                0x0020e190       0x44 /home/sun/t1/MT92_S1_T1_estar_WCDMA_JB9_Ldata_20140711/mediatek/preloader/out/rtc.o
 .text.rtc_gpio_init
                0x0020e1d4       0x28 /home/sun/t1/MT92_S1_T1_estar_WCDMA_JB9_Ldata_20140711/mediatek/preloader/out/rtc.o
 .text.rtc_xosc_write
                0x0020e1fc       0x3a /home/sun/t1/MT92_S1_T1_estar_WCDMA_JB9_Ldata_20140711/mediatek/preloader/out/rtc.o
 .text.get_frequency_meter
                0x0020e238       0xfc /home/sun/t1/MT92_S1_T1_estar_WCDMA_JB9_Ldata_20140711/mediatek/preloader/out/rtc.o
 .text.eosc_cali
                0x0020e334       0xa8 /home/sun/t1/MT92_S1_T1_estar_WCDMA_JB9_Ldata_20140711/mediatek/preloader/out/rtc.o
 .text.rtc_measure_four_clock
                0x0020e3dc       0xb6 /home/sun/t1/MT92_S1_T1_estar_WCDMA_JB9_Ldata_20140711/mediatek/preloader/out/rtc.o
 .text.Writeif_unlock
                0x0020e492       0x2c /home/sun/t1/MT92_S1_T1_estar_WCDMA_JB9_Ldata_20140711/mediatek/preloader/out/rtc.o
 .text.rtc_lpd_init
                0x0020e4be       0x88 /home/sun/t1/MT92_S1_T1_estar_WCDMA_JB9_Ldata_20140711/mediatek/preloader/out/rtc.o
 .text.rtc_2sec_stat_clear
                0x0020e548       0x68 /home/sun/t1/MT92_S1_T1_estar_WCDMA_JB9_Ldata_20140711/mediatek/preloader/out/rtc.o
 .text.rtc_android_init
                0x0020e5b0      0x10e /home/sun/t1/MT92_S1_T1_estar_WCDMA_JB9_Ldata_20140711/mediatek/preloader/out/rtc.o
 .text.rtc_save_2sec_stat
                0x0020e6c0       0xa0 /home/sun/t1/MT92_S1_T1_estar_WCDMA_JB9_Ldata_20140711/mediatek/preloader/out/rtc.o
                0x0020e6c1                rtc_save_2sec_stat
 .text.rtc_switch_mode
                0x0020e760       0x58 /home/sun/t1/MT92_S1_T1_estar_WCDMA_JB9_Ldata_20140711/mediatek/preloader/out/rtc.o
 .text.rtc_frequency_meter_check
                0x0020e7b8       0xcc /home/sun/t1/MT92_S1_T1_estar_WCDMA_JB9_Ldata_20140711/mediatek/preloader/out/rtc.o
 .text.rtc_first_boot_init
                0x0020e884       0x60 /home/sun/t1/MT92_S1_T1_estar_WCDMA_JB9_Ldata_20140711/mediatek/preloader/out/rtc.o
 .text.rtc_recovery_flow
                0x0020e8e4       0xc0 /home/sun/t1/MT92_S1_T1_estar_WCDMA_JB9_Ldata_20140711/mediatek/preloader/out/rtc.o
 .text.rtc_mark_bypass_pwrkey
                0x0020e9a4       0x20 /home/sun/t1/MT92_S1_T1_estar_WCDMA_JB9_Ldata_20140711/mediatek/preloader/out/rtc.o
                0x0020e9a5                rtc_mark_bypass_pwrkey
 .text.rtc_boot_check
                0x0020e9c4      0x618 /home/sun/t1/MT92_S1_T1_estar_WCDMA_JB9_Ldata_20140711/mediatek/preloader/out/rtc.o
                0x0020e9c5                rtc_boot_check
 .text.pl_power_off
                0x0020efdc       0x24 /home/sun/t1/MT92_S1_T1_estar_WCDMA_JB9_Ldata_20140711/mediatek/preloader/out/rtc.o
                0x0020efdd                pl_power_off
 .text.rtc_2sec_reboot_check
                0x0020f000        0xc /home/sun/t1/MT92_S1_T1_estar_WCDMA_JB9_Ldata_20140711/mediatek/preloader/out/rtc.o
                0x0020f001                rtc_2sec_reboot_check
 .text.rtc_enable_2sec_reboot
                0x0020f00c       0x24 /home/sun/t1/MT92_S1_T1_estar_WCDMA_JB9_Ldata_20140711/mediatek/preloader/out/rtc.o
                0x0020f00d                rtc_enable_2sec_reboot
 .text.rtc_bbpu_power_on
                0x0020f030       0x40 /home/sun/t1/MT92_S1_T1_estar_WCDMA_JB9_Ldata_20140711/mediatek/preloader/out/rtc.o
                0x0020f031                rtc_bbpu_power_on
 .text.sec_auth
                0x0020f070       0x48 /home/sun/t1/MT92_S1_T1_estar_WCDMA_JB9_Ldata_20140711/mediatek/preloader/out/sec_auth.o
                0x0020f071                sec_auth
 .text.sec_hash
                0x0020f0b8        0x4 /home/sun/t1/MT92_S1_T1_estar_WCDMA_JB9_Ldata_20140711/mediatek/preloader/out/sec_auth.o
                0x0020f0b9                sec_hash
 .text.da_auth_init
                0x0020f0bc       0x28 /home/sun/t1/MT92_S1_T1_estar_WCDMA_JB9_Ldata_20140711/mediatek/preloader/out/sec_auth.o
                0x0020f0bd                da_auth_init
 .text.img_auth_init
                0x0020f0e4       0x28 /home/sun/t1/MT92_S1_T1_estar_WCDMA_JB9_Ldata_20140711/mediatek/preloader/out/sec_auth.o
                0x0020f0e5                img_auth_init
 .text.sec_boot_img_check
                0x0020f10c       0x2c /home/sun/t1/MT92_S1_T1_estar_WCDMA_JB9_Ldata_20140711/mediatek/preloader/out/sec_boot.o
                0x0020f10d                sec_boot_img_check
 .text.sec_boot_check
                0x0020f138      0x140 /home/sun/t1/MT92_S1_T1_estar_WCDMA_JB9_Ldata_20140711/mediatek/preloader/out/sec_boot.o
                0x0020f139                sec_boot_check
 .text.sec_ctrl_init
                0x0020f278        0x2 /home/sun/t1/MT92_S1_T1_estar_WCDMA_JB9_Ldata_20140711/mediatek/preloader/out/sec_ctrl.o
                0x0020f279                sec_ctrl_init
 .text.sec_flashtool_cfg_init
                0x0020f27a        0x2 /home/sun/t1/MT92_S1_T1_estar_WCDMA_JB9_Ldata_20140711/mediatek/preloader/out/sec_flashtool_cfg.o
                0x0020f27b                sec_flashtool_cfg_init
 .text.sec_key_init
                0x0020f27c       0x7c /home/sun/t1/MT92_S1_T1_estar_WCDMA_JB9_Ldata_20140711/mediatek/preloader/out/sec_key.o
                0x0020f27d                sec_key_init
 .text.sec_cfg_load
                0x0020f2f8       0xc0 /home/sun/t1/MT92_S1_T1_estar_WCDMA_JB9_Ldata_20140711/mediatek/preloader/out/sec.o
                0x0020f2f9                sec_cfg_load
 .text.sec_cfg_save
                0x0020f3b8       0x9c /home/sun/t1/MT92_S1_T1_estar_WCDMA_JB9_Ldata_20140711/mediatek/preloader/out/sec.o
                0x0020f3b9                sec_cfg_save
 .text.sec_lib_init
                0x0020f454      0x160 /home/sun/t1/MT92_S1_T1_estar_WCDMA_JB9_Ldata_20140711/mediatek/preloader/out/sec.o
                0x0020f455                sec_lib_init
 .text.is_BR_cmd_disabled
                0x0020f5b4       0x58 /home/sun/t1/MT92_S1_T1_estar_WCDMA_JB9_Ldata_20140711/mediatek/preloader/out/sec.o
                0x0020f5b5                is_BR_cmd_disabled
 .text.sec_region_check
                0x0020f60c       0xbc /home/sun/t1/MT92_S1_T1_estar_WCDMA_JB9_Ldata_20140711/mediatek/preloader/out/sec_region.o
                0x0020f60d                sec_region_check
 .text.sec_rom_info_init
                0x0020f6c8       0x34 /home/sun/t1/MT92_S1_T1_estar_WCDMA_JB9_Ldata_20140711/mediatek/preloader/out/sec_rom_info.o
                0x0020f6c9                sec_rom_info_init
 .text.factory_mode_valid
                0x0020f6fc       0x48 /home/sun/t1/MT92_S1_T1_estar_WCDMA_JB9_Ldata_20140711/mediatek/preloader/out/sec_secroimg.o
                0x0020f6fd                factory_mode_valid
 .text.sec_lib_read_secro
                0x0020f744       0xec /home/sun/t1/MT92_S1_T1_estar_WCDMA_JB9_Ldata_20140711/mediatek/preloader/out/sec_secroimg.o
                0x0020f745                sec_lib_read_secro
 .text.sec2plname
                0x0020f830      0x17c /home/sun/t1/MT92_S1_T1_estar_WCDMA_JB9_Ldata_20140711/mediatek/preloader/out/sec_util.o
                0x0020f831                sec2plname
 .text.sec_util_get_secro_buf
                0x0020f9ac       0x18 /home/sun/t1/MT92_S1_T1_estar_WCDMA_JB9_Ldata_20140711/mediatek/preloader/out/sec_util.o
                0x0020f9ad                sec_util_get_secro_buf
 .text.sec_util_get_img_buf
                0x0020f9c4       0x18 /home/sun/t1/MT92_S1_T1_estar_WCDMA_JB9_Ldata_20140711/mediatek/preloader/out/sec_util.o
                0x0020f9c5                sec_util_get_img_buf
 .text.sec_util_get_chunk_buf
                0x0020f9dc       0x18 /home/sun/t1/MT92_S1_T1_estar_WCDMA_JB9_Ldata_20140711/mediatek/preloader/out/sec_util.o
                0x0020f9dd                sec_util_get_chunk_buf
 .text.sec_util_get_working_buf
                0x0020f9f4       0x18 /home/sun/t1/MT92_S1_T1_estar_WCDMA_JB9_Ldata_20140711/mediatek/preloader/out/sec_util.o
                0x0020f9f5                sec_util_get_working_buf
 .text.sec_util_read_image
                0x0020fa0c      0x100 /home/sun/t1/MT92_S1_T1_estar_WCDMA_JB9_Ldata_20140711/mediatek/preloader/out/sec_util.o
                0x0020fa0d                sec_util_read_image
 .text.sec_util_brom_download_recovery_check
                0x0020fb0c      0x1bc /home/sun/t1/MT92_S1_T1_estar_WCDMA_JB9_Ldata_20140711/mediatek/preloader/out/sec_util.o
                0x0020fb0d                sec_util_brom_download_recovery_check
 .text.strchr   0x0020fcc8       0x14 /home/sun/t1/MT92_S1_T1_estar_WCDMA_JB9_Ldata_20140711/mediatek/preloader/out/stdlib.o
                0x0020fcc9                strchr
 .text.atoi     0x0020fcdc       0x5c /home/sun/t1/MT92_S1_T1_estar_WCDMA_JB9_Ldata_20140711/mediatek/preloader/out/stdlib.o
                0x0020fcdd                atoi
 .text.strlen   0x0020fd38       0x10 /home/sun/t1/MT92_S1_T1_estar_WCDMA_JB9_Ldata_20140711/mediatek/preloader/out/string.o
                0x0020fd39                strlen
 .text.strcmp   0x0020fd48       0x16 /home/sun/t1/MT92_S1_T1_estar_WCDMA_JB9_Ldata_20140711/mediatek/preloader/out/string.o
                0x0020fd49                strcmp
 .text.strncmp  0x0020fd5e       0x1e /home/sun/t1/MT92_S1_T1_estar_WCDMA_JB9_Ldata_20140711/mediatek/preloader/out/string.o
                0x0020fd5f                strncmp
 .text.memset   0x0020fd7c       0x10 /home/sun/t1/MT92_S1_T1_estar_WCDMA_JB9_Ldata_20140711/mediatek/preloader/out/string.o
                0x0020fd7d                memset
 .text.memcpy   0x0020fd8c       0x12 /home/sun/t1/MT92_S1_T1_estar_WCDMA_JB9_Ldata_20140711/mediatek/preloader/out/string.o
                0x0020fd8d                memcpy
 .text.memcmp   0x0020fd9e       0x1c /home/sun/t1/MT92_S1_T1_estar_WCDMA_JB9_Ldata_20140711/mediatek/preloader/out/string.o
                0x0020fd9f                memcmp
 .text.gpt4_get_current_tick
                0x0020fdbc        0xc /home/sun/t1/MT92_S1_T1_estar_WCDMA_JB9_Ldata_20140711/mediatek/preloader/out/timer.o
                0x0020fdbd                gpt4_get_current_tick
 .text.gpt4_timeout_tick
                0x0020fdc8       0x22 /home/sun/t1/MT92_S1_T1_estar_WCDMA_JB9_Ldata_20140711/mediatek/preloader/out/timer.o
                0x0020fdc9                gpt4_timeout_tick
 .text.gpt4_time2tick_us
                0x0020fdec       0x18 /home/sun/t1/MT92_S1_T1_estar_WCDMA_JB9_Ldata_20140711/mediatek/preloader/out/timer.o
                0x0020fded                gpt4_time2tick_us
 .text.gpt_busy_wait_us
                0x0020fe04       0x1c /home/sun/t1/MT92_S1_T1_estar_WCDMA_JB9_Ldata_20140711/mediatek/preloader/out/timer.o
                0x0020fe05                gpt_busy_wait_us
 .text.gpt_busy_wait_ms
                0x0020fe20       0x44 /home/sun/t1/MT92_S1_T1_estar_WCDMA_JB9_Ldata_20140711/mediatek/preloader/out/timer.o
                0x0020fe21                gpt_busy_wait_ms
 .text.get_timer
                0x0020fe64       0x80 /home/sun/t1/MT92_S1_T1_estar_WCDMA_JB9_Ldata_20140711/mediatek/preloader/out/timer.o
                0x0020fe65                get_timer
 .text.mdelay   0x0020fee4        0x4 /home/sun/t1/MT92_S1_T1_estar_WCDMA_JB9_Ldata_20140711/mediatek/preloader/out/timer.o
                0x0020fee5                mdelay
 .text.udelay   0x0020fee8        0x4 /home/sun/t1/MT92_S1_T1_estar_WCDMA_JB9_Ldata_20140711/mediatek/preloader/out/timer.o
                0x0020fee9                udelay
 .text.mtk_timer_init
                0x0020feec       0x50 /home/sun/t1/MT92_S1_T1_estar_WCDMA_JB9_Ldata_20140711/mediatek/preloader/out/timer.o
                0x0020feed                mtk_timer_init
 .text.serial_setbrg
                0x0020ff3c       0x74 /home/sun/t1/MT92_S1_T1_estar_WCDMA_JB9_Ldata_20140711/mediatek/preloader/out/uart.o
                0x0020ff3d                serial_setbrg
 .text.mtk_serial_set_current_uart
                0x0020ffb0       0x10 /home/sun/t1/MT92_S1_T1_estar_WCDMA_JB9_Ldata_20140711/mediatek/preloader/out/uart.o
                0x0020ffb1                mtk_serial_set_current_uart
 .text.mtk_uart_init
                0x0020ffc0      0x114 /home/sun/t1/MT92_S1_T1_estar_WCDMA_JB9_Ldata_20140711/mediatek/preloader/out/uart.o
                0x0020ffc1                mtk_uart_init
 .text.PutUARTByte
                0x002100d4       0x28 /home/sun/t1/MT92_S1_T1_estar_WCDMA_JB9_Ldata_20140711/mediatek/preloader/out/uart.o
                0x002100d5                PutUARTByte
 .text.GetUARTBytes
                0x002100fc       0x50 /home/sun/t1/MT92_S1_T1_estar_WCDMA_JB9_Ldata_20140711/mediatek/preloader/out/uart.o
                0x002100fd                GetUARTBytes
 .text.mt_read_fifo
                0x0021014c       0xa0 /home/sun/t1/MT92_S1_T1_estar_WCDMA_JB9_Ldata_20140711/mediatek/preloader/out/usbd.o
 .text.mt_find_ep
                0x002101ec       0x38 /home/sun/t1/MT92_S1_T1_estar_WCDMA_JB9_Ldata_20140711/mediatek/preloader/out/usbd.o
 .text.mt_udc_flush_fifo
                0x00210224       0x4c /home/sun/t1/MT92_S1_T1_estar_WCDMA_JB9_Ldata_20140711/mediatek/preloader/out/usbd.o
 .text.mt_write_fifo
                0x00210270       0x84 /home/sun/t1/MT92_S1_T1_estar_WCDMA_JB9_Ldata_20140711/mediatek/preloader/out/usbd.o
 .text.mt_udc_ep0_write
                0x002102f4       0x6c /home/sun/t1/MT92_S1_T1_estar_WCDMA_JB9_Ldata_20140711/mediatek/preloader/out/usbd.o
 .text.mt_udc_epx_handler
                0x00210360       0x7c /home/sun/t1/MT92_S1_T1_estar_WCDMA_JB9_Ldata_20140711/mediatek/preloader/out/usbd.o
 .text.mt_udc_reset
                0x002103dc       0xa8 /home/sun/t1/MT92_S1_T1_estar_WCDMA_JB9_Ldata_20140711/mediatek/preloader/out/usbd.o
 .text.copy_desc
                0x00210484       0x2c /home/sun/t1/MT92_S1_T1_estar_WCDMA_JB9_Ldata_20140711/mediatek/preloader/out/usbd.o
 .text.mt_udc_irq
                0x002104b0      0x574 /home/sun/t1/MT92_S1_T1_estar_WCDMA_JB9_Ldata_20140711/mediatek/preloader/out/usbd.o
                0x002104b1                mt_udc_irq
 .text.mt_ep_write
                0x00210a24       0x38 /home/sun/t1/MT92_S1_T1_estar_WCDMA_JB9_Ldata_20140711/mediatek/preloader/out/usbd.o
                0x00210a25                mt_ep_write
 .text.mt_ep_busy
                0x00210a5c       0x2c /home/sun/t1/MT92_S1_T1_estar_WCDMA_JB9_Ldata_20140711/mediatek/preloader/out/usbd.o
                0x00210a5d                mt_ep_busy
 .text.mt_setup_ep
                0x00210a88      0x170 /home/sun/t1/MT92_S1_T1_estar_WCDMA_JB9_Ldata_20140711/mediatek/preloader/out/usbd.o
                0x00210a89                mt_setup_ep
 .text.mt_usb_connect_internal
                0x00210bf8       0x10 /home/sun/t1/MT92_S1_T1_estar_WCDMA_JB9_Ldata_20140711/mediatek/preloader/out/usbd.o
                0x00210bf9                mt_usb_connect_internal
 .text.mt_usb_disconnect_internal
                0x00210c08       0x10 /home/sun/t1/MT92_S1_T1_estar_WCDMA_JB9_Ldata_20140711/mediatek/preloader/out/usbd.o
                0x00210c09                mt_usb_disconnect_internal
 .text.udc_enable
                0x00210c18       0x44 /home/sun/t1/MT92_S1_T1_estar_WCDMA_JB9_Ldata_20140711/mediatek/preloader/out/usbd.o
                0x00210c19                udc_enable
 .text.usb_service_offline
                0x00210c5c        0xe /home/sun/t1/MT92_S1_T1_estar_WCDMA_JB9_Ldata_20140711/mediatek/preloader/out/usbd.o
                0x00210c5d                usb_service_offline
 .text.is_uart_cable_inserted
                0x00210c6c      0x104 /home/sun/t1/MT92_S1_T1_estar_WCDMA_JB9_Ldata_20140711/mediatek/preloader/out/usbd.o
                0x00210c6d                is_uart_cable_inserted
 .text.mt_usb_phy_poweron
                0x00210d70       0x74 /home/sun/t1/MT92_S1_T1_estar_WCDMA_JB9_Ldata_20140711/mediatek/preloader/out/usbphy.o
                0x00210d71                mt_usb_phy_poweron
 .text.mt_usb_phy_savecurrent
                0x00210de4       0xb4 /home/sun/t1/MT92_S1_T1_estar_WCDMA_JB9_Ldata_20140711/mediatek/preloader/out/usbphy.o
                0x00210de5                mt_usb_phy_savecurrent
 .text.mt_usb_phy_recover
                0x00210e98      0x14c /home/sun/t1/MT92_S1_T1_estar_WCDMA_JB9_Ldata_20140711/mediatek/preloader/out/usbphy.o
                0x00210e99                mt_usb_phy_recover
 .text.Charger_Detect_Init
                0x00210fe4       0x10 /home/sun/t1/MT92_S1_T1_estar_WCDMA_JB9_Ldata_20140711/mediatek/preloader/out/usbphy.o
                0x00210fe5                Charger_Detect_Init
 .text.Charger_Detect_Release
                0x00210ff4       0x10 /home/sun/t1/MT92_S1_T1_estar_WCDMA_JB9_Ldata_20140711/mediatek/preloader/out/usbphy.o
                0x00210ff5                Charger_Detect_Release
 .text.str2wide
                0x00211004       0x22 /home/sun/t1/MT92_S1_T1_estar_WCDMA_JB9_Ldata_20140711/mediatek/preloader/out/usbtty.o
 .text.ep_to_buf.constprop.0
                0x00211028       0x2c /home/sun/t1/MT92_S1_T1_estar_WCDMA_JB9_Ldata_20140711/mediatek/preloader/out/usbtty.o
 .text.usb_alloc_urb
                0x00211054       0x54 /home/sun/t1/MT92_S1_T1_estar_WCDMA_JB9_Ldata_20140711/mediatek/preloader/out/usbtty.o
                0x00211055                usb_alloc_urb
 .text.usbdl_init
                0x002110a8      0x2fc /home/sun/t1/MT92_S1_T1_estar_WCDMA_JB9_Ldata_20140711/mediatek/preloader/out/usbtty.o
                0x002110a9                usbdl_init
 .text.tool_is_present
                0x002113a4       0x10 /home/sun/t1/MT92_S1_T1_estar_WCDMA_JB9_Ldata_20140711/mediatek/preloader/out/usbtty.o
                0x002113a5                tool_is_present
 .text.tool_state_update
                0x002113b4       0x10 /home/sun/t1/MT92_S1_T1_estar_WCDMA_JB9_Ldata_20140711/mediatek/preloader/out/usbtty.o
                0x002113b5                tool_state_update
 .text.usbdl_configured
                0x002113c4       0x10 /home/sun/t1/MT92_S1_T1_estar_WCDMA_JB9_Ldata_20140711/mediatek/preloader/out/usbtty.o
                0x002113c5                usbdl_configured
 .text.enable_highspeed
                0x002113d4       0x74 /home/sun/t1/MT92_S1_T1_estar_WCDMA_JB9_Ldata_20140711/mediatek/preloader/out/usbtty.o
                0x002113d5                enable_highspeed
 .text.config_usbtty
                0x00211448       0x44 /home/sun/t1/MT92_S1_T1_estar_WCDMA_JB9_Ldata_20140711/mediatek/preloader/out/usbtty.o
                0x00211449                config_usbtty
 .text.service_interrupts
                0x0021148c       0x60 /home/sun/t1/MT92_S1_T1_estar_WCDMA_JB9_Ldata_20140711/mediatek/preloader/out/usbtty.o
                0x0021148d                service_interrupts
 .text.usbdl_poll
                0x002114ec       0x7c /home/sun/t1/MT92_S1_T1_estar_WCDMA_JB9_Ldata_20140711/mediatek/preloader/out/usbtty.o
                0x002114ed                usbdl_poll
 .text.usbdl_flush
                0x00211568       0x50 /home/sun/t1/MT92_S1_T1_estar_WCDMA_JB9_Ldata_20140711/mediatek/preloader/out/usbtty.o
                0x00211569                usbdl_flush
 .text.mt_usbtty_flush
                0x002115b8        0x4 /home/sun/t1/MT92_S1_T1_estar_WCDMA_JB9_Ldata_20140711/mediatek/preloader/out/usbtty.o
                0x002115b9                mt_usbtty_flush
 .text.mt_usbtty_getcn
                0x002115bc       0x58 /home/sun/t1/MT92_S1_T1_estar_WCDMA_JB9_Ldata_20140711/mediatek/preloader/out/usbtty.o
                0x002115bd                mt_usbtty_getcn
 .text.mt_usbtty_putcn
                0x00211614       0x74 /home/sun/t1/MT92_S1_T1_estar_WCDMA_JB9_Ldata_20140711/mediatek/preloader/out/usbtty.o
                0x00211615                mt_usbtty_putcn
 .text.mt_usbtty_puts
                0x00211688       0x58 /home/sun/t1/MT92_S1_T1_estar_WCDMA_JB9_Ldata_20140711/mediatek/preloader/out/usbtty.o
                0x00211689                mt_usbtty_puts
 .text.mt_usbtty_query_data_size
                0x002116e0       0x2c /home/sun/t1/MT92_S1_T1_estar_WCDMA_JB9_Ldata_20140711/mediatek/preloader/out/usbtty.o
                0x002116e1                mt_usbtty_query_data_size
 .text.mtk_wdt_reset
                0x0021170c       0x4c /home/sun/t1/MT92_S1_T1_estar_WCDMA_JB9_Ldata_20140711/mediatek/preloader/out/wdt.o
 .text.mtk_wdt_mode_config.constprop.1
                0x00211758       0xa4 /home/sun/t1/MT92_S1_T1_estar_WCDMA_JB9_Ldata_20140711/mediatek/preloader/out/wdt.o
 .text.mtk_wdt_restart
                0x002117fc       0x10 /home/sun/t1/MT92_S1_T1_estar_WCDMA_JB9_Ldata_20140711/mediatek/preloader/out/wdt.o
                0x002117fd                mtk_wdt_restart
 .text.mtk_wdt_boot_check
                0x0021180c       0x5c /home/sun/t1/MT92_S1_T1_estar_WCDMA_JB9_Ldata_20140711/mediatek/preloader/out/wdt.o
                0x0021180d                mtk_wdt_boot_check
 .text.mtk_arch_reset
                0x00211868       0x18 /home/sun/t1/MT92_S1_T1_estar_WCDMA_JB9_Ldata_20140711/mediatek/preloader/out/wdt.o
                0x00211869                mtk_arch_reset
 .text.mtk_wdt_hw_reboot_fail_check
                0x00211880      0x144 /home/sun/t1/MT92_S1_T1_estar_WCDMA_JB9_Ldata_20140711/mediatek/preloader/out/wdt.o
                0x00211881                mtk_wdt_hw_reboot_fail_check
 .text.mtk_wdt_init
                0x002119c4      0x298 /home/sun/t1/MT92_S1_T1_estar_WCDMA_JB9_Ldata_20140711/mediatek/preloader/out/wdt.o
                0x002119c5                mtk_wdt_init
 .text.seclib_sec_boot_enabled
                0x00211c5c       0xe8 /home/sun/t1/MT92_S1_T1_estar_WCDMA_JB9_Ldata_20140711/mediatek/platform/mt6592/preloader/src/SecLib.a(seclib_boot.o)
                0x00211c5c                seclib_sec_boot_enabled
 .text.seclib_cfg_print_status
                0x00211d44       0xe8 /home/sun/t1/MT92_S1_T1_estar_WCDMA_JB9_Ldata_20140711/mediatek/platform/mt6592/preloader/src/SecLib.a(seclib_boot.o)
                0x00211d44                seclib_cfg_print_status
 .text.seclib_image_check
                0x00211e2c      0x31c /home/sun/t1/MT92_S1_T1_estar_WCDMA_JB9_Ldata_20140711/mediatek/platform/mt6592/preloader/src/SecLib.a(seclib_boot.o)
                0x00211e2c                seclib_image_check
 .text.seclib_sec_usbdl_enabled
                0x00212148       0x8c /home/sun/t1/MT92_S1_T1_estar_WCDMA_JB9_Ldata_20140711/mediatek/platform/mt6592/preloader/src/SecLib.a(seclib_dl.o)
                0x00212148                seclib_sec_usbdl_enabled
 .text.seclib_image_hash_compute
                0x002121d4       0x64 /home/sun/t1/MT92_S1_T1_estar_WCDMA_JB9_Ldata_20140711/mediatek/platform/mt6592/preloader/src/SecLib.a(seclib_img_hash.o)
                0x002121d4                seclib_image_hash_compute
 .text.seclib_image_allocate_mem
                0x00212238       0x9c /home/sun/t1/MT92_S1_T1_estar_WCDMA_JB9_Ldata_20140711/mediatek/platform/mt6592/preloader/src/SecLib.a(seclib_img_verify.o)
 .text.seclib_image_fread
                0x002122d4       0xcc /home/sun/t1/MT92_S1_T1_estar_WCDMA_JB9_Ldata_20140711/mediatek/platform/mt6592/preloader/src/SecLib.a(seclib_img_verify.o)
 .text.seclib_gen_hash_by_chunk
                0x002123a0      0x390 /home/sun/t1/MT92_S1_T1_estar_WCDMA_JB9_Ldata_20140711/mediatek/platform/mt6592/preloader/src/SecLib.a(seclib_img_verify.o)
 .text.seclib_image_hash_only
                0x00212730      0x178 /home/sun/t1/MT92_S1_T1_estar_WCDMA_JB9_Ldata_20140711/mediatek/platform/mt6592/preloader/src/SecLib.a(seclib_img_verify.o)
                0x00212730                seclib_image_hash_only
 .text.seclib_image_search_extension
                0x002128a8      0x230 /home/sun/t1/MT92_S1_T1_estar_WCDMA_JB9_Ldata_20140711/mediatek/platform/mt6592/preloader/src/SecLib.a(seclib_img_verify.o)
                0x002128a8                seclib_image_search_extension
 .text.seclib_image_verify
                0x00212ad8      0x418 /home/sun/t1/MT92_S1_T1_estar_WCDMA_JB9_Ldata_20140711/mediatek/platform/mt6592/preloader/src/SecLib.a(seclib_img_verify.o)
                0x00212ad8                seclib_image_verify
 .text.seclib_read_sbc_key
                0x00212ef0       0x6c /home/sun/t1/MT92_S1_T1_estar_WCDMA_JB9_Ldata_20140711/mediatek/platform/mt6592/preloader/src/SecLib.a(seclib_key.o)
                0x00212ef0                seclib_read_sbc_key
 .text.seclib_read_sec_cmd_cfg
                0x00212f5c       0x74 /home/sun/t1/MT92_S1_T1_estar_WCDMA_JB9_Ldata_20140711/mediatek/platform/mt6592/preloader/src/SecLib.a(seclib_key.o)
                0x00212f5c                seclib_read_sec_cmd_cfg
 .text.seclib_sej_init
                0x00212fd0       0x20 /home/sun/t1/MT92_S1_T1_estar_WCDMA_JB9_Ldata_20140711/mediatek/platform/mt6592/preloader/src/SecLib.a(seclib.o)
                0x00212fd0                seclib_sej_init
 .text.seclib_cust_init
                0x00212ff0       0x84 /home/sun/t1/MT92_S1_T1_estar_WCDMA_JB9_Ldata_20140711/mediatek/platform/mt6592/preloader/src/SecLib.a(seclib.o)
                0x00212ff0                seclib_cust_init
 .text.seclib_check
                0x00213074        0x4 /home/sun/t1/MT92_S1_T1_estar_WCDMA_JB9_Ldata_20140711/mediatek/platform/mt6592/preloader/src/SecLib.a(seclib.o)
                0x00213074                seclib_check
 .text.seclib_init
                0x00213078      0x2d0 /home/sun/t1/MT92_S1_T1_estar_WCDMA_JB9_Ldata_20140711/mediatek/platform/mt6592/preloader/src/SecLib.a(seclib.o)
                0x00213078                seclib_init
 .text.seclib_set_img_hdr_ver
                0x00213348      0x104 /home/sun/t1/MT92_S1_T1_estar_WCDMA_JB9_Ldata_20140711/mediatek/platform/mt6592/preloader/src/SecLib.a(seclib.o)
                0x00213348                seclib_set_img_hdr_ver
 .text.seclib_secroimg_read
                0x0021344c      0x114 /home/sun/t1/MT92_S1_T1_estar_WCDMA_JB9_Ldata_20140711/mediatek/platform/mt6592/preloader/src/SecLib.a(seclib_secroimg.o)
                0x0021344c                seclib_secroimg_read
 .text.sp_read_swotp
                0x00213560       0x74 /home/sun/t1/MT92_S1_T1_estar_WCDMA_JB9_Ldata_20140711/mediatek/platform/mt6592/preloader/src/SecLib.a(seclib_sej_export.o)
                0x00213560                sp_read_swotp
 .text.sp_sej_enc
                0x002135d4       0xa8 /home/sun/t1/MT92_S1_T1_estar_WCDMA_JB9_Ldata_20140711/mediatek/platform/mt6592/preloader/src/SecLib.a(seclib_sej_export.o)
                0x002135d4                sp_sej_enc
 .text.sp_sej_dec
                0x0021367c       0xc4 /home/sun/t1/MT92_S1_T1_estar_WCDMA_JB9_Ldata_20140711/mediatek/platform/mt6592/preloader/src/SecLib.a(seclib_sej_export.o)
                0x0021367c                sp_sej_dec
 .text.sp_sej_init
                0x00213740       0x7c /home/sun/t1/MT92_S1_T1_estar_WCDMA_JB9_Ldata_20140711/mediatek/platform/mt6592/preloader/src/SecLib.a(seclib_sej_export.o)
                0x00213740                sp_sej_init
 .text.sp_check_platform
                0x002137bc        0x4 /home/sun/t1/MT92_S1_T1_estar_WCDMA_JB9_Ldata_20140711/mediatek/platform/mt6592/preloader/src/SecLib.a(seclib_sej_export.o)
                0x002137bc                sp_check_platform
 .text.seclib_image_hash_dump
                0x002137c0       0x68 /home/sun/t1/MT92_S1_T1_estar_WCDMA_JB9_Ldata_20140711/mediatek/platform/mt6592/preloader/src/SecLib.a(seclib_util.o)
                0x002137c0                seclib_image_hash_dump
 .text.get_sec_cfg_cnt_size
                0x00213828        0x8 /home/sun/t1/MT92_S1_T1_estar_WCDMA_JB9_Ldata_20140711/mediatek/platform/mt6592/preloader/src/SecLib.a(seclib_util.o)
                0x00213828                get_sec_cfg_cnt_size
 .text.get_seccfg_cipher_len
                0x00213830        0x8 /home/sun/t1/MT92_S1_T1_estar_WCDMA_JB9_Ldata_20140711/mediatek/platform/mt6592/preloader/src/SecLib.a(seccfg_crypto.o)
                0x00213830                get_seccfg_cipher_len
 .text.seclib_mtk_rsa_n_key_len
                0x00213838        0x8 /home/sun/t1/MT92_S1_T1_estar_WCDMA_JB9_Ldata_20140711/mediatek/platform/mt6592/preloader/src/security/auth/DaVerifyLib.a(auth.o)
                0x00213838                seclib_mtk_rsa_n_key_len
 .text.seclib_mtk_rsa_e_key_len
                0x00213840        0x8 /home/sun/t1/MT92_S1_T1_estar_WCDMA_JB9_Ldata_20140711/mediatek/platform/mt6592/preloader/src/security/auth/DaVerifyLib.a(auth.o)
                0x00213840                seclib_mtk_rsa_e_key_len
 .text.seclib_rsa_init
                0x00213848       0xf0 /home/sun/t1/MT92_S1_T1_estar_WCDMA_JB9_Ldata_20140711/mediatek/platform/mt6592/preloader/src/security/auth/DaVerifyLib.a(auth.o)
                0x00213848                seclib_rsa_init
 .text.seclib_rsa_verify
                0x00213938       0xe8 /home/sun/t1/MT92_S1_T1_estar_WCDMA_JB9_Ldata_20140711/mediatek/platform/mt6592/preloader/src/security/auth/DaVerifyLib.a(auth.o)
                0x00213938                seclib_rsa_verify
 .text.bgn_read_str
                0x00213a20      0x1f4 /home/sun/t1/MT92_S1_T1_estar_WCDMA_JB9_Ldata_20140711/mediatek/platform/mt6592/preloader/src/security/auth/DaVerifyLib.a(bgn_io.o)
                0x00213a20                bgn_read_str
 .text.bgn_read_bin
                0x00213c14       0xa0 /home/sun/t1/MT92_S1_T1_estar_WCDMA_JB9_Ldata_20140711/mediatek/platform/mt6592/preloader/src/security/auth/DaVerifyLib.a(bgn_io.o)
                0x00213c14                bgn_read_bin
 .text.bgn_write_bin
                0x00213cb4       0x78 /home/sun/t1/MT92_S1_T1_estar_WCDMA_JB9_Ldata_20140711/mediatek/platform/mt6592/preloader/src/security/auth/DaVerifyLib.a(bgn_io.o)
                0x00213cb4                bgn_write_bin
 .text.bgn_grow
                0x00213d2c       0x88 /home/sun/t1/MT92_S1_T1_estar_WCDMA_JB9_Ldata_20140711/mediatek/platform/mt6592/preloader/src/security/auth/DaVerifyLib.a(bgn_util.o)
                0x00213d2c                bgn_grow
 .text.bgn_copy
                0x00213db4       0x94 /home/sun/t1/MT92_S1_T1_estar_WCDMA_JB9_Ldata_20140711/mediatek/platform/mt6592/preloader/src/security/auth/DaVerifyLib.a(bgn_util.o)
                0x00213db4                bgn_copy
 .text.bgn_lset
                0x00213e48       0x58 /home/sun/t1/MT92_S1_T1_estar_WCDMA_JB9_Ldata_20140711/mediatek/platform/mt6592/preloader/src/security/auth/DaVerifyLib.a(bgn_util.o)
                0x00213e48                bgn_lset
 .text.bgn_msb  0x00213ea0       0x64 /home/sun/t1/MT92_S1_T1_estar_WCDMA_JB9_Ldata_20140711/mediatek/platform/mt6592/preloader/src/security/auth/DaVerifyLib.a(bgn_util.o)
                0x00213ea0                bgn_msb
 .text.bgn_size
                0x00213f04       0x14 /home/sun/t1/MT92_S1_T1_estar_WCDMA_JB9_Ldata_20140711/mediatek/platform/mt6592/preloader/src/security/auth/DaVerifyLib.a(bgn_util.o)
                0x00213f04                bgn_size
 .text.bgn_shift_l
                0x00213f18      0x108 /home/sun/t1/MT92_S1_T1_estar_WCDMA_JB9_Ldata_20140711/mediatek/platform/mt6592/preloader/src/security/auth/DaVerifyLib.a(bgn_util.o)
                0x00213f18                bgn_shift_l
 .text.bgn_shift_r
                0x00214020       0xd4 /home/sun/t1/MT92_S1_T1_estar_WCDMA_JB9_Ldata_20140711/mediatek/platform/mt6592/preloader/src/security/auth/DaVerifyLib.a(bgn_util.o)
                0x00214020                bgn_shift_r
 .text.bgn_cmp_abs
                0x002140f4       0xd0 /home/sun/t1/MT92_S1_T1_estar_WCDMA_JB9_Ldata_20140711/mediatek/platform/mt6592/preloader/src/security/auth/DaVerifyLib.a(bgn_util.o)
                0x002140f4                bgn_cmp_abs
 .text.bgn_cmp_num
                0x002141c4      0x100 /home/sun/t1/MT92_S1_T1_estar_WCDMA_JB9_Ldata_20140711/mediatek/platform/mt6592/preloader/src/security/auth/DaVerifyLib.a(bgn_util.o)
                0x002141c4                bgn_cmp_num
 .text.bgn_cmp_int
                0x002142c4       0x40 /home/sun/t1/MT92_S1_T1_estar_WCDMA_JB9_Ldata_20140711/mediatek/platform/mt6592/preloader/src/security/auth/DaVerifyLib.a(bgn_util.o)
                0x002142c4                bgn_cmp_int
 .text.bgn_add_abs
                0x00214304      0x140 /home/sun/t1/MT92_S1_T1_estar_WCDMA_JB9_Ldata_20140711/mediatek/platform/mt6592/preloader/src/security/auth/DaVerifyLib.a(bgn_util.o)
                0x00214304                bgn_add_abs
 .text.bgn_sub_hlp
                0x00214444       0x80 /home/sun/t1/MT92_S1_T1_estar_WCDMA_JB9_Ldata_20140711/mediatek/platform/mt6592/preloader/src/security/auth/DaVerifyLib.a(bgn_util.o)
                0x00214444                bgn_sub_hlp
 .text.bgn_sub_abs
                0x002144c4       0xd0 /home/sun/t1/MT92_S1_T1_estar_WCDMA_JB9_Ldata_20140711/mediatek/platform/mt6592/preloader/src/security/auth/DaVerifyLib.a(bgn_util.o)
                0x002144c4                bgn_sub_abs
 .text.bgn_add_bgn
                0x00214594       0x80 /home/sun/t1/MT92_S1_T1_estar_WCDMA_JB9_Ldata_20140711/mediatek/platform/mt6592/preloader/src/security/auth/DaVerifyLib.a(bgn_util.o)
                0x00214594                bgn_add_bgn
 .text.bgn_sub_bgn
                0x00214614       0x84 /home/sun/t1/MT92_S1_T1_estar_WCDMA_JB9_Ldata_20140711/mediatek/platform/mt6592/preloader/src/security/auth/DaVerifyLib.a(bgn_util.o)
                0x00214614                bgn_sub_bgn
 .text.bgn_add_int
                0x00214698       0x40 /home/sun/t1/MT92_S1_T1_estar_WCDMA_JB9_Ldata_20140711/mediatek/platform/mt6592/preloader/src/security/auth/DaVerifyLib.a(bgn_util.o)
                0x00214698                bgn_add_int
 .text.bgn_sub_int
                0x002146d8       0x40 /home/sun/t1/MT92_S1_T1_estar_WCDMA_JB9_Ldata_20140711/mediatek/platform/mt6592/preloader/src/security/auth/DaVerifyLib.a(bgn_util.o)
                0x002146d8                bgn_sub_int
 .text.bgn_mul_hlp
                0x00214718      0xa04 /home/sun/t1/MT92_S1_T1_estar_WCDMA_JB9_Ldata_20140711/mediatek/platform/mt6592/preloader/src/security/auth/DaVerifyLib.a(bgn_util.o)
                0x00214718                bgn_mul_hlp
 .text.bgn_mul_bgn
                0x0021511c      0x154 /home/sun/t1/MT92_S1_T1_estar_WCDMA_JB9_Ldata_20140711/mediatek/platform/mt6592/preloader/src/security/auth/DaVerifyLib.a(bgn_util.o)
                0x0021511c                bgn_mul_bgn
 .text.bgn_mul_int
                0x00215270       0x2c /home/sun/t1/MT92_S1_T1_estar_WCDMA_JB9_Ldata_20140711/mediatek/platform/mt6592/preloader/src/security/auth/DaVerifyLib.a(bgn_util.o)
                0x00215270                bgn_mul_int
 .text.bgn_div_bgn
                0x0021529c      0x5d0 /home/sun/t1/MT92_S1_T1_estar_WCDMA_JB9_Ldata_20140711/mediatek/platform/mt6592/preloader/src/security/auth/DaVerifyLib.a(bgn_util.o)
                0x0021529c                bgn_div_bgn
 .text.bgn_mod_bgn
                0x0021586c       0xb4 /home/sun/t1/MT92_S1_T1_estar_WCDMA_JB9_Ldata_20140711/mediatek/platform/mt6592/preloader/src/security/auth/DaVerifyLib.a(bgn_util.o)
                0x0021586c                bgn_mod_bgn
 .text.rsa_pub  0x00215920       0xb0 /home/sun/t1/MT92_S1_T1_estar_WCDMA_JB9_Ldata_20140711/mediatek/platform/mt6592/preloader/src/security/auth/DaVerifyLib.a(rsa.o)
                0x00215920                rsa_pub
 .text.rsa_verify
                0x002159d0       0xcc /home/sun/t1/MT92_S1_T1_estar_WCDMA_JB9_Ldata_20140711/mediatek/platform/mt6592/preloader/src/security/auth/DaVerifyLib.a(rsa.o)
                0x002159d0                rsa_verify
 .text.get_ul   0x00215a9c       0x24 /home/sun/t1/MT92_S1_T1_estar_WCDMA_JB9_Ldata_20140711/mediatek/platform/mt6592/preloader/src/security/auth/DaVerifyLib.a(sha1.o)
                0x00215a9c                get_ul
 .text.hash_process
                0x00215ac0     0x13d4 /home/sun/t1/MT92_S1_T1_estar_WCDMA_JB9_Ldata_20140711/mediatek/platform/mt6592/preloader/src/security/auth/DaVerifyLib.a(sha1.o)
 .text.set_ul   0x00216e94       0x20 /home/sun/t1/MT92_S1_T1_estar_WCDMA_JB9_Ldata_20140711/mediatek/platform/mt6592/preloader/src/security/auth/DaVerifyLib.a(sha1.o)
                0x00216e94                set_ul
 .text.hash_starts
                0x00216eb4       0x4c /home/sun/t1/MT92_S1_T1_estar_WCDMA_JB9_Ldata_20140711/mediatek/platform/mt6592/preloader/src/security/auth/DaVerifyLib.a(sha1.o)
                0x00216eb4                hash_starts
 .text.hash_update
                0x00216f00       0xbc /home/sun/t1/MT92_S1_T1_estar_WCDMA_JB9_Ldata_20140711/mediatek/platform/mt6592/preloader/src/security/auth/DaVerifyLib.a(sha1.o)
                0x00216f00                hash_update
 .text.hash_finish
                0x00216fbc       0x98 /home/sun/t1/MT92_S1_T1_estar_WCDMA_JB9_Ldata_20140711/mediatek/platform/mt6592/preloader/src/security/auth/DaVerifyLib.a(sha1.o)
                0x00216fbc                hash_finish
 .text.sha1     0x00217054       0x50 /home/sun/t1/MT92_S1_T1_estar_WCDMA_JB9_Ldata_20140711/mediatek/platform/mt6592/preloader/src/security/auth/DaVerifyLib.a(sha1.o)
                0x00217054                sha1
 .text.malloc   0x002170a4       0xd0 /home/sun/t1/MT92_S1_T1_estar_WCDMA_JB9_Ldata_20140711/mediatek/platform/mt6592/preloader/src/security/auth/DaVerifyLib.a(stdlib.o)
                0x002170a4                malloc
 .text.free     0x00217174        0x4 /home/sun/t1/MT92_S1_T1_estar_WCDMA_JB9_Ldata_20140711/mediatek/platform/mt6592/preloader/src/security/auth/DaVerifyLib.a(stdlib.o)
                0x00217174                free
 .text.bgn_init
                0x00217178       0x18 /home/sun/t1/MT92_S1_T1_estar_WCDMA_JB9_Ldata_20140711/mediatek/platform/mt6592/preloader/src/security/auth/DaVerifyLib.a(bgn_core.o)
                0x00217178                bgn_init
 .text.bgn_free
                0x00217190       0x44 /home/sun/t1/MT92_S1_T1_estar_WCDMA_JB9_Ldata_20140711/mediatek/platform/mt6592/preloader/src/security/auth/DaVerifyLib.a(bgn_core.o)
                0x00217190                bgn_free
 .text.bgn_exp_mod
                0x002171d4      0x400 /home/sun/t1/MT92_S1_T1_estar_WCDMA_JB9_Ldata_20140711/mediatek/platform/mt6592/preloader/src/security/auth/DaVerifyLib.a(bgn_core.o)
                0x002171d4                bgn_exp_mod
 .text.montg_init
                0x002175d4       0x40 /home/sun/t1/MT92_S1_T1_estar_WCDMA_JB9_Ldata_20140711/mediatek/platform/mt6592/preloader/src/security/auth/DaVerifyLib.a(montg.o)
                0x002175d4                montg_init
 .text.montg_mul
                0x00217614      0x140 /home/sun/t1/MT92_S1_T1_estar_WCDMA_JB9_Ldata_20140711/mediatek/platform/mt6592/preloader/src/security/auth/DaVerifyLib.a(montg.o)
                0x00217614                montg_mul
 .text.montg_red
                0x00217754       0x40 /home/sun/t1/MT92_S1_T1_estar_WCDMA_JB9_Ldata_20140711/mediatek/platform/mt6592/preloader/src/security/auth/DaVerifyLib.a(montg.o)
                0x00217754                montg_red
 .text.seclib_sbc_enabled
                0x00217794       0x60 /home/sun/t1/MT92_S1_T1_estar_WCDMA_JB9_Ldata_20140711/mediatek/platform/mt6592/preloader/src/SecPlat.a(efuse.o)
                0x00217794                seclib_sbc_enabled
 .text.seclib_daa_enabled
                0x002177f4       0x60 /home/sun/t1/MT92_S1_T1_estar_WCDMA_JB9_Ldata_20140711/mediatek/platform/mt6592/preloader/src/SecPlat.a(efuse.o)
                0x002177f4                seclib_daa_enabled
 .text.seclib_sla_enabled
                0x00217854       0x60 /home/sun/t1/MT92_S1_T1_estar_WCDMA_JB9_Ldata_20140711/mediatek/platform/mt6592/preloader/src/SecPlat.a(efuse.o)
                0x00217854                seclib_sla_enabled
 .text.seclib_3g_disable
                0x002178b4       0x14 /home/sun/t1/MT92_S1_T1_estar_WCDMA_JB9_Ldata_20140711/mediatek/platform/mt6592/preloader/src/SecPlat.a(efuse.o)
                0x002178b4                seclib_3g_disable
 .text.seclib_get_devinfo_with_index
                0x002178c8       0x54 /home/sun/t1/MT92_S1_T1_estar_WCDMA_JB9_Ldata_20140711/mediatek/platform/mt6592/preloader/src/SecPlat.a(efuse.o)
                0x002178c8                seclib_get_devinfo_with_index
 .text.seclib_brom_meta_mode
                0x0021791c       0x10 /home/sun/t1/MT92_S1_T1_estar_WCDMA_JB9_Ldata_20140711/mediatek/platform/mt6592/preloader/src/SecPlat.a(meta.o)
                0x0021791c                seclib_brom_meta_mode
 .text.seclib_region_check
                0x0021792c       0x58 /home/sun/t1/MT92_S1_T1_estar_WCDMA_JB9_Ldata_20140711/mediatek/platform/mt6592/preloader/src/SecPlat.a(seclib_region.o)
                0x0021792c                seclib_region_check
 .text.SEJ_V3_Init
                0x00217984      0x10c /home/sun/t1/MT92_S1_T1_estar_WCDMA_JB9_Ldata_20140711/mediatek/platform/mt6592/preloader/src/SecPlat.a(sej_hk.o)
                0x00217984                SEJ_V3_Init
 .text.SEJ_V3_Run
                0x00217a90       0x84 /home/sun/t1/MT92_S1_T1_estar_WCDMA_JB9_Ldata_20140711/mediatek/platform/mt6592/preloader/src/SecPlat.a(sej_hk.o)
                0x00217a90                SEJ_V3_Run
 .text.SEJ_V3_Terminate
                0x00217b14       0x38 /home/sun/t1/MT92_S1_T1_estar_WCDMA_JB9_Ldata_20140711/mediatek/platform/mt6592/preloader/src/SecPlat.a(sej_hk.o)
                0x00217b14                SEJ_V3_Terminate
 .text.sej_set_clk
                0x00217b4c        0x8 /home/sun/t1/MT92_S1_T1_estar_WCDMA_JB9_Ldata_20140711/mediatek/platform/mt6592/preloader/src/SecPlat.a(sej_sk.o)
                0x00217b4c                sej_set_clk
 .text.sej_set_iv
                0x00217b54       0x24 /home/sun/t1/MT92_S1_T1_estar_WCDMA_JB9_Ldata_20140711/mediatek/platform/mt6592/preloader/src/SecPlat.a(sej_sk.o)
                0x00217b54                sej_set_iv
 .text.sej_set_mode
                0x00217b78       0x6c /home/sun/t1/MT92_S1_T1_estar_WCDMA_JB9_Ldata_20140711/mediatek/platform/mt6592/preloader/src/SecPlat.a(sej_sk.o)
                0x00217b78                sej_set_mode
 .text.sej_set_key
                0x00217be4      0x10c /home/sun/t1/MT92_S1_T1_estar_WCDMA_JB9_Ldata_20140711/mediatek/platform/mt6592/preloader/src/SecPlat.a(sej_sk.o)
                0x00217be4                sej_set_key
 .text.sej_do_aes
                0x00217cf0      0x10c /home/sun/t1/MT92_S1_T1_estar_WCDMA_JB9_Ldata_20140711/mediatek/platform/mt6592/preloader/src/SecPlat.a(sej_sk.o)
                0x00217cf0                sej_do_aes
 .text.sej_deinit
                0x00217dfc       0x1c /home/sun/t1/MT92_S1_T1_estar_WCDMA_JB9_Ldata_20140711/mediatek/platform/mt6592/preloader/src/SecPlat.a(sej_sk.o)
                0x00217dfc                sej_deinit
 .text.sej_init
                0xffffffffffffffff      0x120 /home/sun/t1/MT92_S1_T1_estar_WCDMA_JB9_Ldata_20140711/mediatek/platform/mt6592/preloader/src/SecPlat.a(sej_sk.o)
                0x00217e18                sej_init

.rodata         0x00217fe8     0x4ea4
 .rodata        0x00217fe8        0x4 /home/sun/t1/MT92_S1_T1_estar_WCDMA_JB9_Ldata_20140711/mediatek/preloader/out/download.o
 .rodata        0x00217fec       0x10 /home/sun/t1/MT92_S1_T1_estar_WCDMA_JB9_Ldata_20140711/mediatek/preloader/out/msdc.o
 ** merge strings
                0x00217ffc     0x4cf7
 .rodata.msdc_pupd_spec
                0x0021ccf3       0x36 /home/sun/t1/MT92_S1_T1_estar_WCDMA_JB9_Ldata_20140711/mediatek/preloader/out/gpio.o
 .rodata.kpad_pupd_spec
                0x0021cd29       0x12 /home/sun/t1/MT92_S1_T1_estar_WCDMA_JB9_Ldata_20140711/mediatek/preloader/out/gpio.o
 .rodata.__FUNCTION__.1740
                0x0021cd3b        0xa /home/sun/t1/MT92_S1_T1_estar_WCDMA_JB9_Ldata_20140711/mediatek/preloader/out/i2c.o
 .rodata.tran_mant
                0x0021cd45       0x10 /home/sun/t1/MT92_S1_T1_estar_WCDMA_JB9_Ldata_20140711/mediatek/preloader/out/mmc_core.o
 .rodata.tran_exp
                0x0021cd58       0x20 /home/sun/t1/MT92_S1_T1_estar_WCDMA_JB9_Ldata_20140711/mediatek/preloader/out/mmc_core.o
 .rodata.msdc_rsp
                0x0021cd78       0x24 /home/sun/t1/MT92_S1_T1_estar_WCDMA_JB9_Ldata_20140711/mediatek/preloader/out/msdc.o
 .rodata.__func__.1738
                0x0021cd9c        0x8 /home/sun/t1/MT92_S1_T1_estar_WCDMA_JB9_Ldata_20140711/mediatek/preloader/out/partition.o
 .rodata.sys_stack_sz
                0x0021cda4        0x4 /home/sun/t1/MT92_S1_T1_estar_WCDMA_JB9_Ldata_20140711/mediatek/preloader/out/platform.o
                0x0021cda4                sys_stack_sz
 .rodata.__func__.1339
                0x0021cda8       0x12 /home/sun/t1/MT92_S1_T1_estar_WCDMA_JB9_Ldata_20140711/mediatek/preloader/out/pmic_6333.o
 .rodata.__func__.1346
                0x0021cdba       0x11 /home/sun/t1/MT92_S1_T1_estar_WCDMA_JB9_Ldata_20140711/mediatek/preloader/out/pmic_6333.o
 .rodata.__FUNCTION__.1198
                0x0021cdcb       0x16 /home/sun/t1/MT92_S1_T1_estar_WCDMA_JB9_Ldata_20140711/mediatek/preloader/out/pmic_wrap_init.o
 .rodata.__FUNCTION__.1207
                0x0021cde1        0xb /home/sun/t1/MT92_S1_T1_estar_WCDMA_JB9_Ldata_20140711/mediatek/preloader/out/pmic_wrap_init.o
 .rodata.__FUNCTION__.1240
                0x0021cdec       0x15 /home/sun/t1/MT92_S1_T1_estar_WCDMA_JB9_Ldata_20140711/mediatek/preloader/out/pmic_wrap_init.o
 .rodata.digits.1240
                0x0021ce01        0xb /home/sun/t1/MT92_S1_T1_estar_WCDMA_JB9_Ldata_20140711/mediatek/preloader/out/stdlib.o
 .rodata.__func__.1348
                0x0021ce0c        0xd /home/sun/t1/MT92_S1_T1_estar_WCDMA_JB9_Ldata_20140711/mediatek/preloader/out/wdt.o
 .rodata.padding
                0x0021ce19       0x40 /home/sun/t1/MT92_S1_T1_estar_WCDMA_JB9_Ldata_20140711/mediatek/platform/mt6592/preloader/src/security/auth/DaVerifyLib.a(sha1.o)
 .rodata.g_AC_FIXED_PATTERN
                0x0021ce5c       0x30 /home/sun/t1/MT92_S1_T1_estar_WCDMA_JB9_Ldata_20140711/mediatek/platform/mt6592/preloader/src/SecPlat.a(sej_hk.o)

.data           0x0021ce90      0xaec
 .data          0x0021ce90       0x1c /home/sun/t1/MT92_S1_T1_estar_WCDMA_JB9_Ldata_20140711/mediatek/preloader/out/dramc_dle_cal.o
 .data          0x0021ceac       0x1c /home/sun/t1/MT92_S1_T1_estar_WCDMA_JB9_Ldata_20140711/mediatek/preloader/out/dramc_dqs_gw.o
 .data          0x0021cec8        0x8 /home/sun/t1/MT92_S1_T1_estar_WCDMA_JB9_Ldata_20140711/mediatek/preloader/out/handshake_uart.o
 .data          0x0021ced0        0x8 /home/sun/t1/MT92_S1_T1_estar_WCDMA_JB9_Ldata_20140711/mediatek/preloader/out/handshake_usb.o
 .data.msdc_cap
                0x0021ced8       0x10 /home/sun/t1/MT92_S1_T1_estar_WCDMA_JB9_Ldata_20140711/mediatek/preloader/out/cust_msdc.o
                0x0021ced8                msdc_cap
 .data.num_of_emi_records
                0x0021cee8        0x4 /home/sun/t1/MT92_S1_T1_estar_WCDMA_JB9_Ldata_20140711/mediatek/preloader/out/custom_emi.o
                0x0021cee8                num_of_emi_records
 .data.emi_settings
                0x0021ceec      0x234 /home/sun/t1/MT92_S1_T1_estar_WCDMA_JB9_Ldata_20140711/mediatek/preloader/out/custom_emi.o
                0x0021ceec                emi_settings
 .data.rel.local.platform_parts
                0x0021d120      0x500 /home/sun/t1/MT92_S1_T1_estar_WCDMA_JB9_Ldata_20140711/mediatek/preloader/out/cust_part.o
 .data.Bit_DQO_Mapping
                0x0021d620       0x20 /home/sun/t1/MT92_S1_T1_estar_WCDMA_JB9_Ldata_20140711/mediatek/preloader/out/dramc_calib.o
                0x0021d620                Bit_DQO_Mapping
 .data.DQM_Mapping
                0x0021d640        0x4 /home/sun/t1/MT92_S1_T1_estar_WCDMA_JB9_Ldata_20140711/mediatek/preloader/out/dramc_calib.o
                0x0021d640                DQM_Mapping
 .data.DQSO_Mapping
                0x0021d644        0x4 /home/sun/t1/MT92_S1_T1_estar_WCDMA_JB9_Ldata_20140711/mediatek/preloader/out/dramc_calib.o
                0x0021d644                DQSO_Mapping
 .data.rel.local.opt_dle_value
                0x0021d648        0x4 /home/sun/t1/MT92_S1_T1_estar_WCDMA_JB9_Ldata_20140711/mediatek/preloader/out/dramc_dle_cal.o
                0x0021d648                opt_dle_value
 .data.rel.local.dle_tbl
                0x0021d64c       0x28 /home/sun/t1/MT92_S1_T1_estar_WCDMA_JB9_Ldata_20140711/mediatek/preloader/out/dramc_dle_cal.o
                0x0021d64c                dle_tbl
 .data.rel.dle_test_cases
                0x0021d674       0x10 /home/sun/t1/MT92_S1_T1_estar_WCDMA_JB9_Ldata_20140711/mediatek/preloader/out/dramc_dle_cal.o
                0x0021d674                dle_test_cases
 .data.rel.dle_tuning_factors
                0x0021d684       0x14 /home/sun/t1/MT92_S1_T1_estar_WCDMA_JB9_Ldata_20140711/mediatek/preloader/out/dramc_dle_cal.o
                0x0021d684                dle_tuning_factors
 .data.rel.local.dqsi_gw_dly_fine_tbl
                0x0021d698       0x44 /home/sun/t1/MT92_S1_T1_estar_WCDMA_JB9_Ldata_20140711/mediatek/preloader/out/dramc_dqs_gw.o
                0x0021d698                dqsi_gw_dly_fine_tbl
 .data.rel.local.dqsi_gw_dly_coarse_tbl
                0x0021d6dc       0x64 /home/sun/t1/MT92_S1_T1_estar_WCDMA_JB9_Ldata_20140711/mediatek/preloader/out/dramc_dqs_gw.o
                0x0021d6dc                dqsi_gw_dly_coarse_tbl
 .data.rel.dqs_gw_test_cases_1
                0x0021d740       0x10 /home/sun/t1/MT92_S1_T1_estar_WCDMA_JB9_Ldata_20140711/mediatek/preloader/out/dramc_dqs_gw.o
                0x0021d740                dqs_gw_test_cases_1
 .data.rel.dqs_gw_tuning_factors
                0x0021d750       0x28 /home/sun/t1/MT92_S1_T1_estar_WCDMA_JB9_Ldata_20140711/mediatek/preloader/out/dramc_dqs_gw.o
                0x0021d750                dqs_gw_tuning_factors
 .data.emi_setting_default_lpddr2
                0x0021d778       0xbc /home/sun/t1/MT92_S1_T1_estar_WCDMA_JB9_Ldata_20140711/mediatek/preloader/out/emi.o
                0x0021d778                emi_setting_default_lpddr2
 .data.mdl_number.1438
                0x0021d834        0x4 /home/sun/t1/MT92_S1_T1_estar_WCDMA_JB9_Ldata_20140711/mediatek/preloader/out/emi.o
 .data.gpio_dat
                0x0021d838        0x4 /home/sun/t1/MT92_S1_T1_estar_WCDMA_JB9_Ldata_20140711/mediatek/preloader/out/gpio.o
 .data.vbat_status
                0x0021d83c        0x4 /home/sun/t1/MT92_S1_T1_estar_WCDMA_JB9_Ldata_20140711/mediatek/preloader/out/pmic.o
 .data.g_log_drambuf
                0x0021d840        0x4 /home/sun/t1/MT92_S1_T1_estar_WCDMA_JB9_Ldata_20140711/mediatek/preloader/out/print.o
 .data.g_uart   0x0021d844        0x4 /home/sun/t1/MT92_S1_T1_estar_WCDMA_JB9_Ldata_20140711/mediatek/preloader/out/uart.o
                0x0021d844                g_uart
 .data.g_line_coding
                0x0021d848        0x7 /home/sun/t1/MT92_S1_T1_estar_WCDMA_JB9_Ldata_20140711/mediatek/preloader/out/usbd.o
 .data.fifo_addr
                0x0021d850        0x4 /home/sun/t1/MT92_S1_T1_estar_WCDMA_JB9_Ldata_20140711/mediatek/preloader/out/usbd.o
                0x0021d850                fifo_addr
 .data.rel.local.fs_data_ep_descriptor_ptrs
                0x0021d854        0x8 /home/sun/t1/MT92_S1_T1_estar_WCDMA_JB9_Ldata_20140711/mediatek/preloader/out/usbtty.o
 .data.rel.local.usbtty_string_table
                0x0021d85c       0x18 /home/sun/t1/MT92_S1_T1_estar_WCDMA_JB9_Ldata_20140711/mediatek/preloader/out/usbtty.o
 .data.header_function_descriptor
                0x0021d874        0x5 /home/sun/t1/MT92_S1_T1_estar_WCDMA_JB9_Ldata_20140711/mediatek/preloader/out/usbtty.o
 .data.rel.local.fs_comm_ep_descriptor_ptrs
                0x0021d87c        0x4 /home/sun/t1/MT92_S1_T1_estar_WCDMA_JB9_Ldata_20140711/mediatek/preloader/out/usbtty.o
 .data.rel.local.hs_comm_ep_descriptor_ptrs
                0x0021d880        0x4 /home/sun/t1/MT92_S1_T1_estar_WCDMA_JB9_Ldata_20140711/mediatek/preloader/out/usbtty.o
 .data.call_management_descriptor
                0x0021d884        0x5 /home/sun/t1/MT92_S1_T1_estar_WCDMA_JB9_Ldata_20140711/mediatek/preloader/out/usbtty.o
                0x0021d884                call_management_descriptor
 .data.device_qualifier_descriptor
                0x0021d889        0x9 /home/sun/t1/MT92_S1_T1_estar_WCDMA_JB9_Ldata_20140711/mediatek/preloader/out/usbtty.o
 .data.rel.local.hs_data_ep_descriptor_ptrs
                0x0021d894        0x8 /home/sun/t1/MT92_S1_T1_estar_WCDMA_JB9_Ldata_20140711/mediatek/preloader/out/usbtty.o
 .data.language
                0x0021d89c        0x4 /home/sun/t1/MT92_S1_T1_estar_WCDMA_JB9_Ldata_20140711/mediatek/preloader/out/usbtty.o
 .data.hs_ep_descriptors
                0x0021d8a0       0x15 /home/sun/t1/MT92_S1_T1_estar_WCDMA_JB9_Ldata_20140711/mediatek/preloader/out/usbtty.o
 .data.device_descriptor
                0x0021d8b5       0x12 /home/sun/t1/MT92_S1_T1_estar_WCDMA_JB9_Ldata_20140711/mediatek/preloader/out/usbtty.o
 .data.abstract_control_descriptor
                0x0021d8c7        0x4 /home/sun/t1/MT92_S1_T1_estar_WCDMA_JB9_Ldata_20140711/mediatek/preloader/out/usbtty.o
 .data.fs_ep_descriptors
                0x0021d8cb       0x15 /home/sun/t1/MT92_S1_T1_estar_WCDMA_JB9_Ldata_20140711/mediatek/preloader/out/usbtty.o
 .data.interface_descriptors
                0x0021d8e0       0x12 /home/sun/t1/MT92_S1_T1_estar_WCDMA_JB9_Ldata_20140711/mediatek/preloader/out/usbtty.o
 .data.config_descriptors
                0x0021d8f2        0x9 /home/sun/t1/MT92_S1_T1_estar_WCDMA_JB9_Ldata_20140711/mediatek/preloader/out/usbtty.o
 .data.union_function_descriptor
                0x0021d8fb        0x5 /home/sun/t1/MT92_S1_T1_estar_WCDMA_JB9_Ldata_20140711/mediatek/preloader/out/usbtty.o
                0x0021d8fb                union_function_descriptor
 .data.sec_crypto_sig_size
                0x0021d900       0x10 /home/sun/t1/MT92_S1_T1_estar_WCDMA_JB9_Ldata_20140711/mediatek/platform/mt6592/preloader/src/SecLib.a(seclib_img_verify.o)
                0x0021d900                sec_crypto_sig_size
 .data.sec_crypto_hash_size
                0x0021d910       0x14 /home/sun/t1/MT92_S1_T1_estar_WCDMA_JB9_Ldata_20140711/mediatek/platform/mt6592/preloader/src/SecLib.a(seclib_img_verify.o)
                0x0021d910                sec_crypto_hash_size
 .data.g_hdr_ver
                0x0021d924        0x4 /home/sun/t1/MT92_S1_T1_estar_WCDMA_JB9_Ldata_20140711/mediatek/platform/mt6592/preloader/src/SecLib.a(seclib.o)
                0x0021d924                g_hdr_ver
 .data.g_devinfo_data_addr
                0x0021d928       0x54 /home/sun/t1/MT92_S1_T1_estar_WCDMA_JB9_Ldata_20140711/mediatek/platform/mt6592/preloader/src/SecPlat.a(efuse.o)
                0x0021d928                g_devinfo_data_addr

.got            0x0021d97c      0x178
 ** GOT         0x0021d97c      0x16c
 ** GOT PLT     0x0021dae8        0xc
